(dp1
S'output'
p2
S"<type 'exceptions.ValueError'> Circular reference detected"
p3
sS'layer'
p4
S'/Users/ying-hsuanlin/termite-data-server/web2py/applications/lda_x40_mallet/controllers/DocTopicMatrix.py'
p5
sS'code'
p6
S"#!/usr/bin/env python\n# -*- coding: utf-8 -*-\n\nimport json\nfrom db.BOW_DB import BOW_DB\nfrom db.LDA_DB import LDA_DB\nfrom vis.DocTopicMatrix import DocTopicMatrix\n\ndef index():\n\twith BOW_DB() as bow_db:\n\t\twith LDA_DB() as lda_db:\n\t\t\thandler = DocTopicMatrix(request, response, bow_db, lda_db)\n\treturn handler.GenerateResponse()\n\ndef StateModel():\n\twith BOW_DB() as bow_db:\n\t\twith LDA_DB() as lda_db:\n\t\t\thandler = DocTopicMatrix(request, response, bow_db, lda_db)\n\t\t\tdata = handler.GetStateModel()\n\tdataStr = json.dumps(data, encoding='utf-8', indent=2, sort_keys=True)\n\tresponse.headers['Content-Type'] = 'application/json'\n\treturn dataStr\n\ndef SeriatedTermTopicProbabilityModel():\n\twith BOW_DB() as bow_db:\n\t\twith LDA_DB() as lda_db:\n\t\t\thandler = DocTopicMatrix(request, response, bow_db, lda_db)\n\t\t\tdata = handler.GetSeriatedTermTopicProbabilityModel()\n\tdataStr = json.dumps(data, encoding='utf-8', indent=2, sort_keys=True)\n\tresponse.headers['Content-Type'] = 'application/json'\n\treturn dataStr\n\ndef FilteredTermTopicProbabilityModel():\n\twith BOW_DB() as bow_db:\n\t\twith LDA_DB() as lda_db:\n\t\t\thandler = DocTopicMatrix(request, response, bow_db, lda_db)\n\tdata = handler.GetFilteredTermTopicProbabilityModel()\n\tdataStr = json.dumps(data, encoding='utf-8', indent=2, sort_keys=True)\n\tresponse.headers['Content-Type'] = 'application/json'\n\treturn dataStr\n\ndef TermFrequencyModel():\n\twith BOW_DB() as bow_db:\n\t\twith LDA_DB() as lda_db:\n\t\t\thandler = DocTopicMatrix(request, response, bow_db, lda_db)\n\t\t\tdata = handler.GetTermFrequencyModel()\n\tdataStr = json.dumps(data, encoding='utf-8', indent=2, sort_keys=True)\n\tresponse.headers['Content-Type'] = 'application/json'\n\treturn dataStr\n\nresponse._vars=response._caller(TermFrequencyModel)\n"
p7
sS'snapshot'
p8
(dp9
S'exception'
p10
(dp11
S'__hash__'
p12
S"<method-wrapper '__hash__' of exceptions.ValueError object>"
p13
sS'__setattr__'
p14
S"<method-wrapper '__setattr__' of exceptions.ValueError object>"
p15
sS'__reduce_ex__'
p16
S'<built-in method __reduce_ex__ of exceptions.ValueError object>'
p17
sS'__getslice__'
p18
S"<method-wrapper '__getslice__' of exceptions.ValueError object>"
p19
sS'__getitem__'
p20
S"<method-wrapper '__getitem__' of exceptions.ValueError object>"
p21
sS'__setstate__'
p22
S'<built-in method __setstate__ of exceptions.ValueError object>'
p23
sS'args'
p24
S"('Circular reference detected',)"
p25
sS'__reduce__'
p26
S'<built-in method __reduce__ of exceptions.ValueError object>'
p27
sS'__str__'
p28
S"<method-wrapper '__str__' of exceptions.ValueError object>"
p29
sS'__format__'
p30
S'<built-in method __format__ of exceptions.ValueError object>'
p31
sS'__getattribute__'
p32
S"<method-wrapper '__getattribute__' of exceptions.ValueError object>"
p33
sS'__class__'
p34
S"<type 'exceptions.ValueError'>"
p35
sS'__unicode__'
p36
S'<built-in method __unicode__ of exceptions.ValueError object>'
p37
sS'__delattr__'
p38
S"<method-wrapper '__delattr__' of exceptions.ValueError object>"
p39
sS'__subclasshook__'
p40
S'<built-in method __subclasshook__ of type object>'
p41
sS'__repr__'
p42
S"<method-wrapper '__repr__' of exceptions.ValueError object>"
p43
sS'__dict__'
p44
S'{}'
p45
sS'__sizeof__'
p46
S'<built-in method __sizeof__ of exceptions.ValueError object>'
p47
sS'__doc__'
p48
S"'Inappropriate argument value (of correct type).'"
p49
sS'__init__'
p50
S"<method-wrapper '__init__' of exceptions.ValueError object>"
p51
sS'__new__'
p52
S'<built-in method __new__ of type object>'
p53
ssS'evalue'
p54
S'Circular reference detected'
p55
sS'request'
p56
cgluon.html
XML_unpickle
p57
(S'sN^\x00\x00<div><table><tr><td style="font-weight:bold;vertical-align:top;">ajax</td><td style="vertical-align:top;">:</td><td><div>True</div></td></tr><tr><td style="font-weight:bold;vertical-align:top;">application</td><td style="vertical-align:top;">:</td><td><div>lda_x40_mallet</div></td></tr><tr><td style="font-weight:bold;vertical-align:top;">args</td><td style="vertical-align:top;">:</td><td><div><table></table></div></td></tr><tr><td style="font-weight:bold;vertical-align:top;">cid</td><td style="vertical-align:top;">:</td><td><div>None</div></td></tr><tr><td style="font-weight:bold;vertical-align:top;">client</td><td style="vertical-align:top;">:</td><td><div>127.0.0.1</div></td></tr><tr><td style="font-weight:bold;vertical-align:top;">controller</td><td style="vertical-align:top;">:</td><td><div>DocTopicMatrix</div></td></tr><tr><td style="font-weight:bold;vertical-align:top;">cookies</td><td style="vertical-align:top;">:</td><td><div><table><tr><td style="font-weight:bold;vertical-align:top;">session_id_admin</td><td style="vertical-align:top;">:</td><td><div>127.0.0.1-903fb486-227b-4e0d-8418-02a9d767186d<table><tr><td style="font-weight:bold;vertical-align:top;">comment</td><td style="vertical-align:top;">:</td><td><div></div></td></tr><tr><td style="font-weight:bold;vertical-align:top;">domain</td><td style="vertical-align:top;">:</td><td><div></div></td></tr><tr><td style="font-weight:bold;vertical-align:top;">expires</td><td style="vertical-align:top;">:</td><td><div></div></td></tr><tr><td style="font-weight:bold;vertical-align:top;">httponly</td><td style="vertical-align:top;">:</td><td><div></div></td></tr><tr><td style="font-weight:bold;vertical-align:top;">max-age</td><td style="vertical-align:top;">:</td><td><div></div></td></tr><tr><td style="font-weight:bold;vertical-align:top;">path</td><td style="vertical-align:top;">:</td><td><div></div></td></tr><tr><td style="font-weight:bold;vertical-align:top;">secure</td><td style="vertical-align:top;">:</td><td><div></div></td></tr><tr><td style="font-weight:bold;vertical-align:top;">version</td><td style="vertical-align:top;">:</td><td><div></div></td></tr></table></div></td></tr><tr><td style="font-weight:bold;vertical-align:top;">session_id_init</td><td style="vertical-align:top;">:</td><td><div>127.0.0.1-4a173cae-860d-4cfb-82b6-1bfadbc37867<table><tr><td style="font-weight:bold;vertical-align:top;">comment</td><td style="vertical-align:top;">:</td><td><div></div></td></tr><tr><td style="font-weight:bold;vertical-align:top;">domain</td><td style="vertical-align:top;">:</td><td><div></div></td></tr><tr><td style="font-weight:bold;vertical-align:top;">expires</td><td style="vertical-align:top;">:</td><td><div></div></td></tr><tr><td style="font-weight:bold;vertical-align:top;">httponly</td><td style="vertical-align:top;">:</td><td><div></div></td></tr><tr><td style="font-weight:bold;vertical-align:top;">max-age</td><td style="vertical-align:top;">:</td><td><div></div></td></tr><tr><td style="font-weight:bold;vertical-align:top;">path</td><td style="vertical-align:top;">:</td><td><div></div></td></tr><tr><td style="font-weight:bold;vertical-align:top;">secure</td><td style="vertical-align:top;">:</td><td><div></div></td></tr><tr><td style="font-weight:bold;vertical-align:top;">version</td><td style="vertical-align:top;">:</td><td><div></div></td></tr></table></div></td></tr><tr><td style="font-weight:bold;vertical-align:top;">session_id_lda_x40_mallet</td><td style="vertical-align:top;">:</td><td><div>127.0.0.1-abbd7586-706d-4ae8-8498-edd465e428ca<table><tr><td style="font-weight:bold;vertical-align:top;">comment</td><td style="vertical-align:top;">:</td><td><div></div></td></tr><tr><td style="font-weight:bold;vertical-align:top;">domain</td><td style="vertical-align:top;">:</td><td><div></div></td></tr><tr><td style="font-weight:bold;vertical-align:top;">expires</td><td style="vertical-align:top;">:</td><td><div></div></td></tr><tr><td style="font-weight:bold;vertical-align:top;">httponly</td><td style="vertical-align:top;">:</td><td><div></div></td></tr><tr><td style="font-weight:bold;vertical-align:top;">max-age</td><td style="vertical-align:top;">:</td><td><div></div></td></tr><tr><td style="font-weight:bold;vertical-align:top;">path</td><td style="vertical-align:top;">:</td><td><div></div></td></tr><tr><td style="font-weight:bold;vertical-align:top;">secure</td><td style="vertical-align:top;">:</td><td><div></div></td></tr><tr><td style="font-weight:bold;vertical-align:top;">version</td><td style="vertical-align:top;">:</td><td><div></div></td></tr></table></div></td></tr></table></div></td></tr><tr><td style="font-weight:bold;vertical-align:top;">env</td><td style="vertical-align:top;">:</td><td><div><table><tr><td style="font-weight:bold;vertical-align:top;">HTTP_ACCEPT</td><td style="vertical-align:top;">:</td><td><div>application/json, text/javascript, */*; q=0.01</div></td></tr><tr><td style="font-weight:bold;vertical-align:top;">HTTP_ACCEPT_ENCODING</td><td style="vertical-align:top;">:</td><td><div>gzip, deflate, sdch</div></td></tr><tr><td style="font-weight:bold;vertical-align:top;">HTTP_ACCEPT_LANGUAGE</td><td style="vertical-align:top;">:</td><td><div>zh-TW,zh;q=0.8,en-US;q=0.6,en;q=0.4,zh-CN;q=0.2,et;q=0.2</div></td></tr><tr><td style="font-weight:bold;vertical-align:top;">HTTP_CONNECTION</td><td style="vertical-align:top;">:</td><td><div>keep-alive</div></td></tr><tr><td style="font-weight:bold;vertical-align:top;">HTTP_COOKIE</td><td style="vertical-align:top;">:</td><td><div>session_id_init=127.0.0.1-4a173cae-860d-4cfb-82b6-1bfadbc37867; session_id_admin=127.0.0.1-903fb486-227b-4e0d-8418-02a9d767186d; session_id_lda_x40_mallet=127.0.0.1-abbd7586-706d-4ae8-8498-edd465e428ca</div></td></tr><tr><td style="font-weight:bold;vertical-align:top;">HTTP_HOST</td><td style="vertical-align:top;">:</td><td><div>127.0.0.1:8075</div></td></tr><tr><td style="font-weight:bold;vertical-align:top;">HTTP_REFERER</td><td style="vertical-align:top;">:</td><td><div>http://127.0.0.1:8075/lda_x40_mallet/DocTopicMatrix</div></td></tr><tr><td style="font-weight:bold;vertical-align:top;">HTTP_USER_AGENT</td><td style="vertical-align:top;">:</td><td><div>Mozilla/5.0 (Macintosh; Intel Mac OS X 10_10_2) AppleWebKit/537.36 (KHTML, like Gecko) Chrome/43.0.2357.132 Safari/537.36</div></td></tr><tr><td style="font-weight:bold;vertical-align:top;">HTTP_X_REQUESTED_WITH</td><td style="vertical-align:top;">:</td><td><div>XMLHttpRequest</div></td></tr><tr><td style="font-weight:bold;vertical-align:top;">PATH_INFO</td><td style="vertical-align:top;">:</td><td><div>/lda_x40_mallet/DocTopicMatrix/TermFrequencyModel</div></td></tr><tr><td style="font-weight:bold;vertical-align:top;">QUERY_STRING</td><td style="vertical-align:top;">:</td><td><div></div></td></tr><tr><td style="font-weight:bold;vertical-align:top;">REMOTE_ADDR</td><td style="vertical-align:top;">:</td><td><div>127.0.0.1</div></td></tr><tr><td style="font-weight:bold;vertical-align:top;">REMOTE_PORT</td><td style="vertical-align:top;">:</td><td><div>50510</div></td></tr><tr><td style="font-weight:bold;vertical-align:top;">REQUEST_METHOD</td><td style="vertical-align:top;">:</td><td><div>GET</div></td></tr><tr><td style="font-weight:bold;vertical-align:top;">SCRIPT_NAME</td><td style="vertical-align:top;">:</td><td><div></div></td></tr><tr><td style="font-weight:bold;vertical-align:top;">SERVER_NAME</td><td style="vertical-align:top;">:</td><td><div>Ying-Hsuan.local</div></td></tr><tr><td style="font-weight:bold;vertical-align:top;">SERVER_PORT</td><td style="vertical-align:top;">:</td><td><div>8075</div></td></tr><tr><td style="font-weight:bold;vertical-align:top;">SERVER_PROTOCOL</td><td style="vertical-align:top;">:</td><td><div>HTTP/1.1</div></td></tr><tr><td style="font-weight:bold;vertical-align:top;">SERVER_SOFTWARE</td><td style="vertical-align:top;">:</td><td><div>Rocket 1.2.6</div></td></tr><tr><td style="font-weight:bold;vertical-align:top;">app_folders</td><td style="vertical-align:top;">:</td><td><div>set([&#x27;/Users/ying-hsuanlin/termite-data-server/web2py/applications/admin/&#x27;, &#x27;/Users/ying-hsuanlin/termite-data-server/web2py/applications/init/&#x27;, &#x27;/Users/ying-hsuanlin/termite-data-server/web2py/applications/lda_x40_mallet/&#x27;])</div></td></tr><tr><td style="font-weight:bold;vertical-align:top;">applications_parent</td><td style="vertical-align:top;">:</td><td><div>/Users/ying-hsuanlin/termite-data-server/web2py</div></td></tr><tr><td style="font-weight:bold;vertical-align:top;">cmd_args</td><td style="vertical-align:top;">:</td><td><div><table></table></div></td></tr><tr><td style="font-weight:bold;vertical-align:top;">cmd_options</td><td style="vertical-align:top;">:</td><td><div>&lt;Values at 0x10eaaeef0: {&#x27;verbose&#x27;: False, &#x27;ip&#x27;: &#x27;127.0.0.1&#x27;, &#x27;debuglevel&#x27;: 30, &#x27;with_scheduler&#x27;: False, &#x27;ips&#x27;: [&#x27;192.168.11.8&#x27;, &#x27;fe80::7ed1:c3ff:fe93:8428%en1&#x27;], &#x27;shutdown_timeout&#x27;: 5, &#x27;taskbar&#x27;: False, &#x27;with_coverage&#x27;: False, &#x27;port&#x27;: 8075, &#x27;maxthreads&#x27;: None, &#x27;softcron&#x27;: False, &#x27;server_name&#x27;: &#x27;Ying-Hsuan.local&#x27;, &#x27;bpython&#x27;: False, &#x27;nogui&#x27;: False, &#x27;pid_filename&#x27;: &#x27;httpserver.pid&#x27;, &#x27;extcron&#x27;: False, &#x27;runcron&#x27;: False, &#x27;run_system_tests&#x27;: False, &#x27;test&#x27;: None, &#x27;folder&#x27;: &#x27;/Users/ying-hsuanlin/termite-data-server/web2py&#x27;, &#x27;config&#x27;: &#x27;&#x27;, &#x27;minthreads&#x27;: None, &#x27;shell&#x27;: None, &#x27;run&#x27;: &#x27;&#x27;, &#x27;log_filename&#x27;: &#x27;httpserver.log&#x27;, &#x27;profiler_dir&#x27;: None, &#x27;args&#x27;: [&#x27;&#x27;], &#x27;socket_timeout&#x27;: 5, &#x27;ssl_ca_certificate&#x27;: None, &#x27;scheduler&#x27;: None, &#x27;interfaces&#x27;: None, &#x27;ssl_private_key&#x27;: &#x27;&#x27;, &#x27;scheduler_groups&#x27;: None, &#x27;password&#x27;: &#x27;&lt;ask&gt;&#x27;, &#x27;request_queue_size&#x27;: 5, &#x27;ssl_certificate&#x27;: &#x27;&#x27;, &#x27;cronjob&#x27;: False, &#x27;numthreads&#x27;: None, &#x27;quiet&#x27;: False, &#x27;import_models&#x27;: False, &#x27;timeout&#x27;: 10, &#x27;plain&#x27;: False, &#x27;nobanner&#x27;: False}&gt;</div></td></tr><tr><td style="font-weight:bold;vertical-align:top;">db_sessions</td><td style="vertical-align:top;">:</td><td><div>set([])</div></td></tr><tr><td style="font-weight:bold;vertical-align:top;">debugging</td><td style="vertical-align:top;">:</td><td><div>False</div></td></tr><tr><td style="font-weight:bold;vertical-align:top;">gluon_parent</td><td style="vertical-align:top;">:</td><td><div>/Users/ying-hsuanlin/termite-data-server/web2py</div></td></tr><tr><td style="font-weight:bold;vertical-align:top;">http_accept</td><td style="vertical-align:top;">:</td><td><div>application/json, text/javascript, */*; q=0.01</div></td></tr><tr><td style="font-weight:bold;vertical-align:top;">http_accept_encoding</td><td style="vertical-align:top;">:</td><td><div>gzip, deflate, sdch</div></td></tr><tr><td style="font-weight:bold;vertical-align:top;">http_accept_language</td><td style="vertical-align:top;">:</td><td><div>zh-TW,zh;q=0.8,en-US;q=0.6,en;q=0.4,zh-CN;q=0.2,et;q=0.2</div></td></tr><tr><td style="font-weight:bold;vertical-align:top;">http_connection</td><td style="vertical-align:top;">:</td><td><div>keep-alive</div></td></tr><tr><td style="font-weight:bold;vertical-align:top;">http_cookie</td><td style="vertical-align:top;">:</td><td><div>session_id_init=127.0.0.1-4a173cae-860d-4cfb-82b6-1bfadbc37867; session_id_admin=127.0.0.1-903fb486-227b-4e0d-8418-02a9d767186d; session_id_lda_x40_mallet=127.0.0.1-abbd7586-706d-4ae8-8498-edd465e428ca</div></td></tr><tr><td style="font-weight:bold;vertical-align:top;">http_host</td><td style="vertical-align:top;">:</td><td><div>127.0.0.1:8075</div></td></tr><tr><td style="font-weight:bold;vertical-align:top;">http_referer</td><td style="vertical-align:top;">:</td><td><div>http://127.0.0.1:8075/lda_x40_mallet/DocTopicMatrix</div></td></tr><tr><td style="font-weight:bold;vertical-align:top;">http_user_agent</td><td style="vertical-align:top;">:</td><td><div>Mozilla/5.0 (Macintosh; Intel Mac OS X 10_10_2) AppleWebKit/537.36 (KHTML, like Gecko) Chrome/43.0.2357.132 Safari/537.36</div></td></tr><tr><td style="font-weight:bold;vertical-align:top;">http_x_requested_with</td><td style="vertical-align:top;">:</td><td><div>XMLHttpRequest</div></td></tr><tr><td style="font-weight:bold;vertical-align:top;">is_jython</td><td style="vertical-align:top;">:</td><td><div>False</div></td></tr><tr><td style="font-weight:bold;vertical-align:top;">is_pypy</td><td style="vertical-align:top;">:</td><td><div>False</div></td></tr><tr><td style="font-weight:bold;vertical-align:top;">is_source</td><td style="vertical-align:top;">:</td><td><div>True</div></td></tr><tr><td style="font-weight:bold;vertical-align:top;">local_hosts</td><td style="vertical-align:top;">:</td><td><div><table><tr><td><div>fe80::7ed1:c3ff:fe93:8428%en1</div></td></tr><tr><td><div>192.168.11.8</div></td></tr><tr><td><div>::ffff:127.0.0.1</div></td></tr><tr><td><div>::1</div></td></tr><tr><td><div>Ying-Hsuan.local</div></td></tr><tr><td><div>127.0.0.1</div></td></tr></table></div></td></tr><tr><td style="font-weight:bold;vertical-align:top;">path_info</td><td style="vertical-align:top;">:</td><td><div>/lda_x40_mallet/DocTopicMatrix/TermFrequencyModel</div></td></tr><tr><td style="font-weight:bold;vertical-align:top;">query_string</td><td style="vertical-align:top;">:</td><td><div></div></td></tr><tr><td style="font-weight:bold;vertical-align:top;">remote_addr</td><td style="vertical-align:top;">:</td><td><div>127.0.0.1</div></td></tr><tr><td style="font-weight:bold;vertical-align:top;">remote_port</td><td style="vertical-align:top;">:</td><td><div>50510</div></td></tr><tr><td style="font-weight:bold;vertical-align:top;">request_method</td><td style="vertical-align:top;">:</td><td><div>GET</div></td></tr><tr><td style="font-weight:bold;vertical-align:top;">request_uri</td><td style="vertical-align:top;">:</td><td><div>/lda_x40_mallet/DocTopicMatrix/TermFrequencyModel</div></td></tr><tr><td style="font-weight:bold;vertical-align:top;">script_name</td><td style="vertical-align:top;">:</td><td><div></div></td></tr><tr><td style="font-weight:bold;vertical-align:top;">server_name</td><td style="vertical-align:top;">:</td><td><div>Ying-Hsuan.local</div></td></tr><tr><td style="font-weight:bold;vertical-align:top;">server_port</td><td style="vertical-align:top;">:</td><td><div>8075</div></td></tr><tr><td style="font-weight:bold;vertical-align:top;">server_protocol</td><td style="vertical-align:top;">:</td><td><div>HTTP/1.1</div></td></tr><tr><td style="font-weight:bold;vertical-align:top;">server_software</td><td style="vertical-align:top;">:</td><td><div>Rocket 1.2.6</div></td></tr><tr><td style="font-weight:bold;vertical-align:top;">web2py_path</td><td style="vertical-align:top;">:</td><td><div>/Users/ying-hsuanlin/termite-data-server/web2py</div></td></tr><tr><td style="font-weight:bold;vertical-align:top;">web2py_version</td><td style="vertical-align:top;">:</td><td><div>2.9.5-stable+timestamp.2014.03.16.02.35.39</div></td></tr><tr><td style="font-weight:bold;vertical-align:top;">wsgi.errors</td><td style="vertical-align:top;">:</td><td><div>&lt;open file &#x27;&lt;stderr&gt;&#x27;, mode &#x27;w&#x27; at 0x10dbce1e0&gt;</div></td></tr><tr><td style="font-weight:bold;vertical-align:top;">wsgi.file_wrapper</td><td style="vertical-align:top;">:</td><td><div>&lt;class wsgiref.util.FileWrapper at 0x10e80c598&gt;</div></td></tr><tr><td style="font-weight:bold;vertical-align:top;">wsgi.input</td><td style="vertical-align:top;">:</td><td><div>&lt;socket._fileobject object at 0x1158de650&gt;</div></td></tr><tr><td style="font-weight:bold;vertical-align:top;">wsgi.multiprocess</td><td style="vertical-align:top;">:</td><td><div>False</div></td></tr><tr><td style="font-weight:bold;vertical-align:top;">wsgi.multithread</td><td style="vertical-align:top;">:</td><td><div>True</div></td></tr><tr><td style="font-weight:bold;vertical-align:top;">wsgi.run_once</td><td style="vertical-align:top;">:</td><td><div>False</div></td></tr><tr><td style="font-weight:bold;vertical-align:top;">wsgi.url_scheme</td><td style="vertical-align:top;">:</td><td><div>http</div></td></tr><tr><td style="font-weight:bold;vertical-align:top;">wsgi.version</td><td style="vertical-align:top;">:</td><td><div><table><tr><td><div>1</div></td></tr><tr><td><div>0</div></td></tr></table></div></td></tr><tr><td style="font-weight:bold;vertical-align:top;">wsgi_errors</td><td style="vertical-align:top;">:</td><td><div>&lt;open file &#x27;&lt;stderr&gt;&#x27;, mode &#x27;w&#x27; at 0x10dbce1e0&gt;</div></td></tr><tr><td style="font-weight:bold;vertical-align:top;">wsgi_file_wrapper</td><td style="vertical-align:top;">:</td><td><div>&lt;class wsgiref.util.FileWrapper at 0x10e80c598&gt;</div></td></tr><tr><td style="font-weight:bold;vertical-align:top;">wsgi_input</td><td style="vertical-align:top;">:</td><td><div>&lt;socket._fileobject object at 0x1158de650&gt;</div></td></tr><tr><td style="font-weight:bold;vertical-align:top;">wsgi_multiprocess</td><td style="vertical-align:top;">:</td><td><div>False</div></td></tr><tr><td style="font-weight:bold;vertical-align:top;">wsgi_multithread</td><td style="vertical-align:top;">:</td><td><div>True</div></td></tr><tr><td style="font-weight:bold;vertical-align:top;">wsgi_run_once</td><td style="vertical-align:top;">:</td><td><div>False</div></td></tr><tr><td style="font-weight:bold;vertical-align:top;">wsgi_url_scheme</td><td style="vertical-align:top;">:</td><td><div>http</div></td></tr><tr><td style="font-weight:bold;vertical-align:top;">wsgi_version</td><td style="vertical-align:top;">:</td><td><div><table><tr><td><div>1</div></td></tr><tr><td><div>0</div></td></tr></table></div></td></tr></table></div></td></tr><tr><td style="font-weight:bold;vertical-align:top;">extension</td><td style="vertical-align:top;">:</td><td><div>html</div></td></tr><tr><td style="font-weight:bold;vertical-align:top;">folder</td><td style="vertical-align:top;">:</td><td><div>/Users/ying-hsuanlin/termite-data-server/web2py/applications/lda_x40_mallet/</div></td></tr><tr><td style="font-weight:bold;vertical-align:top;">function</td><td style="vertical-align:top;">:</td><td><div>TermFrequencyModel</div></td></tr><tr><td style="font-weight:bold;vertical-align:top;">global_settings</td><td style="vertical-align:top;">:</td><td><div><table><tr><td style="font-weight:bold;vertical-align:top;">app_folders</td><td style="vertical-align:top;">:</td><td><div>set([&#x27;/Users/ying-hsuanlin/termite-data-server/web2py/applications/admin/&#x27;, &#x27;/Users/ying-hsuanlin/termite-data-server/web2py/applications/init/&#x27;, &#x27;/Users/ying-hsuanlin/termite-data-server/web2py/applications/lda_x40_mallet/&#x27;])</div></td></tr><tr><td style="font-weight:bold;vertical-align:top;">applications_parent</td><td style="vertical-align:top;">:</td><td><div>/Users/ying-hsuanlin/termite-data-server/web2py</div></td></tr><tr><td style="font-weight:bold;vertical-align:top;">cmd_args</td><td style="vertical-align:top;">:</td><td><div><table></table></div></td></tr><tr><td style="font-weight:bold;vertical-align:top;">cmd_options</td><td style="vertical-align:top;">:</td><td><div>&lt;Values at 0x10eaaeef0: {&#x27;verbose&#x27;: False, &#x27;ip&#x27;: &#x27;127.0.0.1&#x27;, &#x27;debuglevel&#x27;: 30, &#x27;with_scheduler&#x27;: False, &#x27;ips&#x27;: [&#x27;192.168.11.8&#x27;, &#x27;fe80::7ed1:c3ff:fe93:8428%en1&#x27;], &#x27;shutdown_timeout&#x27;: 5, &#x27;taskbar&#x27;: False, &#x27;with_coverage&#x27;: False, &#x27;port&#x27;: 8075, &#x27;maxthreads&#x27;: None, &#x27;softcron&#x27;: False, &#x27;server_name&#x27;: &#x27;Ying-Hsuan.local&#x27;, &#x27;bpython&#x27;: False, &#x27;nogui&#x27;: False, &#x27;pid_filename&#x27;: &#x27;httpserver.pid&#x27;, &#x27;extcron&#x27;: False, &#x27;runcron&#x27;: False, &#x27;run_system_tests&#x27;: False, &#x27;test&#x27;: None, &#x27;folder&#x27;: &#x27;/Users/ying-hsuanlin/termite-data-server/web2py&#x27;, &#x27;config&#x27;: &#x27;&#x27;, &#x27;minthreads&#x27;: None, &#x27;shell&#x27;: None, &#x27;run&#x27;: &#x27;&#x27;, &#x27;log_filename&#x27;: &#x27;httpserver.log&#x27;, &#x27;profiler_dir&#x27;: None, &#x27;args&#x27;: [&#x27;&#x27;], &#x27;socket_timeout&#x27;: 5, &#x27;ssl_ca_certificate&#x27;: None, &#x27;scheduler&#x27;: None, &#x27;interfaces&#x27;: None, &#x27;ssl_private_key&#x27;: &#x27;&#x27;, &#x27;scheduler_groups&#x27;: None, &#x27;password&#x27;: &#x27;&lt;ask&gt;&#x27;, &#x27;request_queue_size&#x27;: 5, &#x27;ssl_certificate&#x27;: &#x27;&#x27;, &#x27;cronjob&#x27;: False, &#x27;numthreads&#x27;: None, &#x27;quiet&#x27;: False, &#x27;import_models&#x27;: False, &#x27;timeout&#x27;: 10, &#x27;plain&#x27;: False, &#x27;nobanner&#x27;: False}&gt;</div></td></tr><tr><td style="font-weight:bold;vertical-align:top;">db_sessions</td><td style="vertical-align:top;">:</td><td><div>set([])</div></td></tr><tr><td style="font-weight:bold;vertical-align:top;">debugging</td><td style="vertical-align:top;">:</td><td><div>False</div></td></tr><tr><td style="font-weight:bold;vertical-align:top;">gluon_parent</td><td style="vertical-align:top;">:</td><td><div>/Users/ying-hsuanlin/termite-data-server/web2py</div></td></tr><tr><td style="font-weight:bold;vertical-align:top;">is_jython</td><td style="vertical-align:top;">:</td><td><div>False</div></td></tr><tr><td style="font-weight:bold;vertical-align:top;">is_pypy</td><td style="vertical-align:top;">:</td><td><div>False</div></td></tr><tr><td style="font-weight:bold;vertical-align:top;">is_source</td><td style="vertical-align:top;">:</td><td><div>True</div></td></tr><tr><td style="font-weight:bold;vertical-align:top;">local_hosts</td><td style="vertical-align:top;">:</td><td><div><table><tr><td><div>fe80::7ed1:c3ff:fe93:8428%en1</div></td></tr><tr><td><div>192.168.11.8</div></td></tr><tr><td><div>::ffff:127.0.0.1</div></td></tr><tr><td><div>::1</div></td></tr><tr><td><div>Ying-Hsuan.local</div></td></tr><tr><td><div>127.0.0.1</div></td></tr></table></div></td></tr><tr><td style="font-weight:bold;vertical-align:top;">web2py_version</td><td style="vertical-align:top;">:</td><td><div>2.9.5-stable+timestamp.2014.03.16.02.35.39</div></td></tr></table></div></td></tr><tr><td style="font-weight:bold;vertical-align:top;">is_https</td><td style="vertical-align:top;">:</td><td><div>False</div></td></tr><tr><td style="font-weight:bold;vertical-align:top;">is_local</td><td style="vertical-align:top;">:</td><td><div>True</div></td></tr><tr><td style="font-weight:bold;vertical-align:top;">is_restful</td><td style="vertical-align:top;">:</td><td><div>False</div></td></tr><tr><td style="font-weight:bold;vertical-align:top;">now</td><td style="vertical-align:top;">:</td><td><div>datetime.datetime(2015, 7, 13, 17, 33, 1, 796346)</div></td></tr><tr><td style="font-weight:bold;vertical-align:top;">raw_args</td><td style="vertical-align:top;">:</td><td><div></div></td></tr><tr><td style="font-weight:bold;vertical-align:top;">raw_extension</td><td style="vertical-align:top;">:</td><td><div>None</div></td></tr><tr><td style="font-weight:bold;vertical-align:top;">url</td><td style="vertical-align:top;">:</td><td><div>/lda_x40_mallet/DocTopicMatrix/TermFrequencyModel</div></td></tr><tr><td style="font-weight:bold;vertical-align:top;">utcnow</td><td style="vertical-align:top;">:</td><td><div>datetime.datetime(2015, 7, 13, 9, 33, 1, 796355)</div></td></tr><tr><td style="font-weight:bold;vertical-align:top;">uuid</td><td style="vertical-align:top;">:</td><td><div>lda_x40_mallet/127.0.0.1.2015-07-13.17-33-01.081c66a3-9839-4a5d-8134-208ef27f138a</div></td></tr><tr><td style="font-weight:bold;vertical-align:top;">wsgi</td><td style="vertical-align:top;">:</td><td><div>&lt;gluon.main.LazyWSGI object at 0x118a63e10&gt;</div></td></tr></table></div>'
tRp58
sS'frames'
p59
(lp60
(dp61
S'file'
p62
S'/Users/ying-hsuanlin/termite-data-server/web2py/gluon/restricted.py'
p63
sS'dump'
p64
(dp65
S'environment'
p66
S"{'A': <class 'gluon.html.A'>, 'ANY_OF': <class 'gluon.validators.ANY_OF'>, 'B': <class 'gluon.html.B'>, 'BEAUTIFY': <class 'gluon.html.BEAUTIFY'>, 'BODY': <class 'gluon.html.BODY'>, 'BOW_DB': <class applications.lda_x40_mallet.modules.db.BOW_DB.BOW_DB>, 'BR': <class 'gluon.html.BR'>, 'BUTTON': <class 'gluon.html.BUTTON'>, 'CAT': <class 'gluon.html.CAT'>, 'CENTER': <class 'gluon.html.CENTER'>, ...}"
p67
sS'ccode'
p68
S'<code object <module> at 0x1158de8b0, file "/Use...40_mallet/controllers/DocTopicMatrix.py", line 4>'
p69
ssS'lnum'
p70
I220
sS'lines'
p71
(dp72
I224
S'        # do not encapsulate (obfuscate) the original RestrictedError'
p73
sI215
S'    try:'
p74
sI216
S'        if isinstance(code, types.CodeType):'
p75
sI217
S'            ccode = code'
p76
sI218
S'        else:'
p77
sI219
S'            ccode = compile2(code, layer)'
p78
sI220
S'        exec ccode in environment'
p79
sI221
S'    except HTTP:'
p80
sI222
S'        raise'
p81
sI223
S'    except RestrictedError:'
p82
ssS'call'
p83
S"(code='#!/usr/bin/env python\\n# -*- coding: utf-8 -*-\\n\\ni...ponse._vars=response._caller(TermFrequencyModel)\\n', environment={'A': <class 'gluon.html.A'>, 'ANY_OF': <class 'gluon.validators.ANY_OF'>, 'B': <class 'gluon.html.B'>, 'BEAUTIFY': <class 'gluon.html.BEAUTIFY'>, 'BODY': <class 'gluon.html.BODY'>, 'BOW_DB': <class applications.lda_x40_mallet.modules.db.BOW_DB.BOW_DB>, 'BR': <class 'gluon.html.BR'>, 'BUTTON': <class 'gluon.html.BUTTON'>, 'CAT': <class 'gluon.html.CAT'>, 'CENTER': <class 'gluon.html.CENTER'>, ...}, layer='/Users/ying-hsuanlin/termite-data-server/web2py/...ions/lda_x40_mallet/controllers/DocTopicMatrix.py')"
p84
sS'func'
p85
S'restricted'
p86
sa(dp87
g62
S'/Users/ying-hsuanlin/termite-data-server/web2py/applications/lda_x40_mallet/controllers/DocTopicMatrix.py'
p88
sg64
(dp89
sg70
I51
sg71
(dp90
I40
S'\treturn dataStr'
p91
sI41
S''
sI42
S'def TermFrequencyModel():'
p92
sI43
S'\twith BOW_DB() as bow_db:'
p93
sI44
S'\t\twith LDA_DB() as lda_db:'
p94
sI45
S'\t\t\thandler = DocTopicMatrix(request, response, bow_db, lda_db)'
p95
sI46
S'\t\t\tdata = handler.GetTermFrequencyModel()'
p96
sI47
S"\tdataStr = json.dumps(data, encoding='utf-8', indent=2, sort_keys=True)"
p97
sI48
S"\tresponse.headers['Content-Type'] = 'application/json'"
p98
sI49
S'\treturn dataStr'
p99
ssg83
S'()'
p100
sg85
S'<module>'
p101
sa(dp102
g62
S'/Users/ying-hsuanlin/termite-data-server/web2py/gluon/globals.py'
p103
sg64
(dp104
S'self'
p105
S'undefined'
p106
sS'f'
S'<function TermFrequencyModel>'
p107
ssg70
I385
sg71
(dp108
I384
S'        self._vars = None'
p109
sI385
S'        self._caller = lambda f: f()'
p110
sI386
S'        self._view_environment = None'
p111
sI387
S'        self._custom_commit = None'
p112
sI388
S'        self._custom_rollback = None'
p113
sI389
S''
sI380
S'        self.menu = []             # used by the default view layout'
p114
sI381
S'        self.files = []            # used by web2py_ajax.html'
p115
sI382
S'        self.generic_patterns = []  # patterns to allow generic views'
p116
sI383
S"        self.delimiters = ('{{', '}}')"
p117
ssg83
S'(f=<function TermFrequencyModel>)'
p118
sg85
S'<lambda>'
p119
sa(dp120
g62
S'/Users/ying-hsuanlin/termite-data-server/web2py/applications/lda_x40_mallet/controllers/DocTopicMatrix.py'
p121
sg64
(dp122
S'indent'
p123
g106
sS'encoding'
p124
g106
sS'global json'
p125
S"<module 'json' from '/System/Library/Frameworks/...rk/Versions/2.7/lib/python2.7/json/__init__.pyc'>"
p126
sS'json.dumps'
p127
S'<function dumps>'
p128
sS'dataStr'
p129
g106
sS'data'
p130
S"{'Doc->Topic': [0, 3, 0, 0, 3, 6, 0, 2, 0, 0, 1, 1, 3, 1, 2, 1, 1, 1, 1, 1, ...], 'Topic->Term': [u'cloud', u'erp', u'system', u'data', u'base', u'inform', u'judgment', u'process', u'univers', u'imag'], 'docFreqMap': {u'doc1': 1.0, u'doc10': 1.0, u'doc11': 0.9999999999999999, u'doc12': 1.0, u'doc13': 1.0, u'doc14': 1.0, u'doc15': 1.0, u'doc16': 1.0, u'doc17': 1.0, u'doc18': 1.0, ...}, 'docIndex': [u'doc26', u'doc28', u'doc29', u'doc35', u'doc36', u'doc38', u'doc1', u'doc2', u'doc4', u'doc5', u'doc9', u'doc10', u'doc12', u'doc13', u'doc14', u'doc15', u'doc16', u'doc17', u'doc18', u'doc19', ...], 'final': {'Doc->Topic': [0, 3, 0, 0, 3, 6, 0, 2, 0, 0, 1, 1, 3, 1, 2, 1, 1, 1, 1, 1, ...], 'Topic->Term': [u'cloud', u'erp', u'system', u'data', u'base', u'inform', u'judgment', u'process', u'univers', u'imag'], 'docFreqMap': {u'doc1': 1.0, u'doc10': 1.0, u'doc11': 0.9999999999999999, u'doc12': 1.0, u'doc13': 1.0, u'doc14': 1.0, u'doc15': 1.0, u'doc16': 1.0, u'doc17': 1.0, u'doc18': 1.0, ...}, 'docIndex': [u'doc26', u'doc28', u'doc29', u'doc35', u'doc36', u'doc38', u'doc1', u'doc2', u'doc4', u'doc5', u'doc9', u'doc10', u'doc12', u'doc13', u'doc14', u'doc15', u'doc16', u'doc17', u'doc18', u'doc19', ...], 'final': {'Doc->Topic': [0, 3, 0, 0, 3, 6, 0, 2, 0, 0, 1, 1, 3, 1, 2, 1, 1, 1, 1, 1, ...], 'Topic->Term': [u'cloud', u'erp', u'system', u'data', u'base', u'inform', u'judgment', u'process', u'univers', u'imag'], 'docFreqMap': {u'doc1': 1.0, u'doc10': 1.0, u'doc11': 0.9999999999999999, u'doc12': 1.0, u'doc13': 1.0, u'doc14': 1.0, u'doc15': 1.0, u'doc16': 1.0, u'doc17': 1.0, u'doc18': 1.0, ...}, 'docIndex': [u'doc26', u'doc28', u'doc29', u'doc35', u'doc36', u'doc38', u'doc1', u'doc2', u'doc4', u'doc5', u'doc9', u'doc10', u'doc12', u'doc13', u'doc14', u'doc15', u'doc16', u'doc17', u'doc18', u'doc19', ...], 'final': {'Doc->Topic': [0, 3, 0, 0, 3, 6, 0, 2, 0, 0, 1, 1, 3, 1, 2, 1, 1, 1, 1, 1, ...], 'Topic->Term': [u'cloud', u'erp', u'system', u'data', u'base', u'inform', u'judgment', u'process', u'univers', u'imag'], 'docFreqMap': {u'doc1': 1.0, u'doc10': 1.0, u'doc11': 0.9999999999999999, u'doc12': 1.0, u'doc13': 1.0, u'doc14': 1.0, u'doc15': 1.0, u'doc16': 1.0, u'doc17': 1.0, u'doc18': 1.0, ...}, 'docIndex': [u'doc26', u'doc28', u'doc29', u'doc35', u'doc36', u'doc38', u'doc1', u'doc2', u'doc4', u'doc5', u'doc9', u'doc10', u'doc12', u'doc13', u'doc14', u'doc15', u'doc16', u'doc17', u'doc18', u'doc19', ...], 'final': {'Doc->Topic': [0, 3, 0, 0, 3, 6, 0, 2, 0, 0, 1, 1, 3, 1, 2, 1, 1, 1, 1, 1, ...], 'Topic->Term': [u'cloud', u'erp', u'system', u'data', u'base', u'inform', u'judgment', u'process', u'univers', u'imag'], 'docFreqMap': {u'doc1': 1.0, u'doc10': 1.0, u'doc11': 0.9999999999999999, u'doc12': 1.0, u'doc13': 1.0, u'doc14': 1.0, u'doc15': 1.0, u'doc16': 1.0, u'doc17': 1.0, u'doc18': 1.0, ...}, 'docIndex': [u'doc26', u'doc28', u'doc29', u'doc35', u'doc36', u'doc38', u'doc1', u'doc2', u'doc4', u'doc5', u'doc9', u'doc10', u'doc12', u'doc13', u'doc14', u'doc15', u'doc16', u'doc17', u'doc18', u'doc19', ...], 'final': {'Doc->Topic': [...], 'Topic->Term': [...], 'docFreqMap': {...}, 'docIndex': [...], 'final': {...}, 'topicIndex': [...], 'topicMapping': [...]}, 'topicIndex': ['Topic 1', 'Topic 2', 'Topic 3', 'Topic 4', 'Topic 5', 'Topic 6', 'Topic 7', 'Topic 8', 'Topic 9', 'Topic 10'], 'topicMapping': [0, 1, 2, 3, 4, 5, 6, 7, 8, 9]}, 'topicIndex': ['Topic 1', 'Topic 2', 'Topic 3', 'Topic 4', 'Topic 5', 'Topic 6', 'Topic 7', 'Topic 8', 'Topic 9', 'Topic 10'], 'topicMapping': [0, 1, 2, 3, 4, 5, 6, 7, 8, 9]}, 'topicIndex': ['Topic 1', 'Topic 2', 'Topic 3', 'Topic 4', 'Topic 5', 'Topic 6', 'Topic 7', 'Topic 8', 'Topic 9', 'Topic 10'], 'topicMapping': [0, 1, 2, 3, 4, 5, 6, 7, 8, 9]}, 'topicIndex': ['Topic 1', 'Topic 2', 'Topic 3', 'Topic 4', 'Topic 5', 'Topic 6', 'Topic 7', 'Topic 8', 'Topic 9', 'Topic 10'], 'topicMapping': [0, 1, 2, 3, 4, 5, 6, 7, 8, 9]}, 'topicIndex': ['Topic 1', 'Topic 2', 'Topic 3', 'Topic 4', 'Topic 5', 'Topic 6', 'Topic 7', 'Topic 8', 'Topic 9', 'Topic 10'], 'topicMapping': [0, 1, 2, 3, 4, 5, 6, 7, 8, 9]}"
p131
sS'sort_keys'
p132
g106
sS'builtinTrue'
p133
S'True'
p134
ssg70
I47
sg71
(dp135
I40
S'\treturn dataStr'
p136
sI41
S''
sI42
S'def TermFrequencyModel():'
p137
sI43
S'\twith BOW_DB() as bow_db:'
p138
sI44
S'\t\twith LDA_DB() as lda_db:'
p139
sI45
S'\t\t\thandler = DocTopicMatrix(request, response, bow_db, lda_db)'
p140
sI46
S'\t\t\tdata = handler.GetTermFrequencyModel()'
p141
sI47
S"\tdataStr = json.dumps(data, encoding='utf-8', indent=2, sort_keys=True)"
p142
sI48
S"\tresponse.headers['Content-Type'] = 'application/json'"
p143
sI49
S'\treturn dataStr'
p144
ssg83
S'()'
p145
sg85
S'TermFrequencyModel'
p146
sa(dp147
g62
S'/System/Library/Frameworks/Python.framework/Versions/2.7/lib/python2.7/json/__init__.py'
p148
sg64
(dp149
S'obj'
p150
S"{'Doc->Topic': [0, 3, 0, 0, 3, 6, 0, 2, 0, 0, 1, 1, 3, 1, 2, 1, 1, 1, 1, 1, ...], 'Topic->Term': [u'cloud', u'erp', u'system', u'data', u'base', u'inform', u'judgment', u'process', u'univers', u'imag'], 'docFreqMap': {u'doc1': 1.0, u'doc10': 1.0, u'doc11': 0.9999999999999999, u'doc12': 1.0, u'doc13': 1.0, u'doc14': 1.0, u'doc15': 1.0, u'doc16': 1.0, u'doc17': 1.0, u'doc18': 1.0, ...}, 'docIndex': [u'doc26', u'doc28', u'doc29', u'doc35', u'doc36', u'doc38', u'doc1', u'doc2', u'doc4', u'doc5', u'doc9', u'doc10', u'doc12', u'doc13', u'doc14', u'doc15', u'doc16', u'doc17', u'doc18', u'doc19', ...], 'final': {'Doc->Topic': [0, 3, 0, 0, 3, 6, 0, 2, 0, 0, 1, 1, 3, 1, 2, 1, 1, 1, 1, 1, ...], 'Topic->Term': [u'cloud', u'erp', u'system', u'data', u'base', u'inform', u'judgment', u'process', u'univers', u'imag'], 'docFreqMap': {u'doc1': 1.0, u'doc10': 1.0, u'doc11': 0.9999999999999999, u'doc12': 1.0, u'doc13': 1.0, u'doc14': 1.0, u'doc15': 1.0, u'doc16': 1.0, u'doc17': 1.0, u'doc18': 1.0, ...}, 'docIndex': [u'doc26', u'doc28', u'doc29', u'doc35', u'doc36', u'doc38', u'doc1', u'doc2', u'doc4', u'doc5', u'doc9', u'doc10', u'doc12', u'doc13', u'doc14', u'doc15', u'doc16', u'doc17', u'doc18', u'doc19', ...], 'final': {'Doc->Topic': [0, 3, 0, 0, 3, 6, 0, 2, 0, 0, 1, 1, 3, 1, 2, 1, 1, 1, 1, 1, ...], 'Topic->Term': [u'cloud', u'erp', u'system', u'data', u'base', u'inform', u'judgment', u'process', u'univers', u'imag'], 'docFreqMap': {u'doc1': 1.0, u'doc10': 1.0, u'doc11': 0.9999999999999999, u'doc12': 1.0, u'doc13': 1.0, u'doc14': 1.0, u'doc15': 1.0, u'doc16': 1.0, u'doc17': 1.0, u'doc18': 1.0, ...}, 'docIndex': [u'doc26', u'doc28', u'doc29', u'doc35', u'doc36', u'doc38', u'doc1', u'doc2', u'doc4', u'doc5', u'doc9', u'doc10', u'doc12', u'doc13', u'doc14', u'doc15', u'doc16', u'doc17', u'doc18', u'doc19', ...], 'final': {'Doc->Topic': [0, 3, 0, 0, 3, 6, 0, 2, 0, 0, 1, 1, 3, 1, 2, 1, 1, 1, 1, 1, ...], 'Topic->Term': [u'cloud', u'erp', u'system', u'data', u'base', u'inform', u'judgment', u'process', u'univers', u'imag'], 'docFreqMap': {u'doc1': 1.0, u'doc10': 1.0, u'doc11': 0.9999999999999999, u'doc12': 1.0, u'doc13': 1.0, u'doc14': 1.0, u'doc15': 1.0, u'doc16': 1.0, u'doc17': 1.0, u'doc18': 1.0, ...}, 'docIndex': [u'doc26', u'doc28', u'doc29', u'doc35', u'doc36', u'doc38', u'doc1', u'doc2', u'doc4', u'doc5', u'doc9', u'doc10', u'doc12', u'doc13', u'doc14', u'doc15', u'doc16', u'doc17', u'doc18', u'doc19', ...], 'final': {'Doc->Topic': [0, 3, 0, 0, 3, 6, 0, 2, 0, 0, 1, 1, 3, 1, 2, 1, 1, 1, 1, 1, ...], 'Topic->Term': [u'cloud', u'erp', u'system', u'data', u'base', u'inform', u'judgment', u'process', u'univers', u'imag'], 'docFreqMap': {u'doc1': 1.0, u'doc10': 1.0, u'doc11': 0.9999999999999999, u'doc12': 1.0, u'doc13': 1.0, u'doc14': 1.0, u'doc15': 1.0, u'doc16': 1.0, u'doc17': 1.0, u'doc18': 1.0, ...}, 'docIndex': [u'doc26', u'doc28', u'doc29', u'doc35', u'doc36', u'doc38', u'doc1', u'doc2', u'doc4', u'doc5', u'doc9', u'doc10', u'doc12', u'doc13', u'doc14', u'doc15', u'doc16', u'doc17', u'doc18', u'doc19', ...], 'final': {'Doc->Topic': [...], 'Topic->Term': [...], 'docFreqMap': {...}, 'docIndex': [...], 'final': {...}, 'topicIndex': [...], 'topicMapping': [...]}, 'topicIndex': ['Topic 1', 'Topic 2', 'Topic 3', 'Topic 4', 'Topic 5', 'Topic 6', 'Topic 7', 'Topic 8', 'Topic 9', 'Topic 10'], 'topicMapping': [0, 1, 2, 3, 4, 5, 6, 7, 8, 9]}, 'topicIndex': ['Topic 1', 'Topic 2', 'Topic 3', 'Topic 4', 'Topic 5', 'Topic 6', 'Topic 7', 'Topic 8', 'Topic 9', 'Topic 10'], 'topicMapping': [0, 1, 2, 3, 4, 5, 6, 7, 8, 9]}, 'topicIndex': ['Topic 1', 'Topic 2', 'Topic 3', 'Topic 4', 'Topic 5', 'Topic 6', 'Topic 7', 'Topic 8', 'Topic 9', 'Topic 10'], 'topicMapping': [0, 1, 2, 3, 4, 5, 6, 7, 8, 9]}, 'topicIndex': ['Topic 1', 'Topic 2', 'Topic 3', 'Topic 4', 'Topic 5', 'Topic 6', 'Topic 7', 'Topic 8', 'Topic 9', 'Topic 10'], 'topicMapping': [0, 1, 2, 3, 4, 5, 6, 7, 8, 9]}, 'topicIndex': ['Topic 1', 'Topic 2', 'Topic 3', 'Topic 4', 'Topic 5', 'Topic 6', 'Topic 7', 'Topic 8', 'Topic 9', 'Topic 10'], 'topicMapping': [0, 1, 2, 3, 4, 5, 6, 7, 8, 9]}"
p151
sS'sort_keys'
p152
g134
sS'kw'
p153
g45
sS').encode'
p154
g106
ssg70
I250
sg71
(dp155
I245
S'        cls = JSONEncoder'
p156
sI246
S'    return cls('
p157
sI247
S'        skipkeys=skipkeys, ensure_ascii=ensure_ascii,'
p158
sI248
S'        check_circular=check_circular, allow_nan=allow_nan, indent=indent,'
p159
sI249
S'        separators=separators, encoding=encoding, default=default,'
p160
sI250
S'        sort_keys=sort_keys, **kw).encode(obj)'
p161
sI251
S''
sI252
S''
sI253
S'_default_decoder = JSONDecoder(encoding=None, object_hook=None,'
p162
sI254
S'                               object_pairs_hook=None)'
p163
ssg83
S"(obj={'Doc->Topic': [0, 3, 0, 0, 3, 6, 0, 2, 0, 0, 1, 1, 3, 1, 2, 1, 1, 1, 1, 1, ...], 'Topic->Term': [u'cloud', u'erp', u'system', u'data', u'base', u'inform', u'judgment', u'process', u'univers', u'imag'], 'docFreqMap': {u'doc1': 1.0, u'doc10': 1.0, u'doc11': 0.9999999999999999, u'doc12': 1.0, u'doc13': 1.0, u'doc14': 1.0, u'doc15': 1.0, u'doc16': 1.0, u'doc17': 1.0, u'doc18': 1.0, ...}, 'docIndex': [u'doc26', u'doc28', u'doc29', u'doc35', u'doc36', u'doc38', u'doc1', u'doc2', u'doc4', u'doc5', u'doc9', u'doc10', u'doc12', u'doc13', u'doc14', u'doc15', u'doc16', u'doc17', u'doc18', u'doc19', ...], 'final': {'Doc->Topic': [0, 3, 0, 0, 3, 6, 0, 2, 0, 0, 1, 1, 3, 1, 2, 1, 1, 1, 1, 1, ...], 'Topic->Term': [u'cloud', u'erp', u'system', u'data', u'base', u'inform', u'judgment', u'process', u'univers', u'imag'], 'docFreqMap': {u'doc1': 1.0, u'doc10': 1.0, u'doc11': 0.9999999999999999, u'doc12': 1.0, u'doc13': 1.0, u'doc14': 1.0, u'doc15': 1.0, u'doc16': 1.0, u'doc17': 1.0, u'doc18': 1.0, ...}, 'docIndex': [u'doc26', u'doc28', u'doc29', u'doc35', u'doc36', u'doc38', u'doc1', u'doc2', u'doc4', u'doc5', u'doc9', u'doc10', u'doc12', u'doc13', u'doc14', u'doc15', u'doc16', u'doc17', u'doc18', u'doc19', ...], 'final': {'Doc->Topic': [0, 3, 0, 0, 3, 6, 0, 2, 0, 0, 1, 1, 3, 1, 2, 1, 1, 1, 1, 1, ...], 'Topic->Term': [u'cloud', u'erp', u'system', u'data', u'base', u'inform', u'judgment', u'process', u'univers', u'imag'], 'docFreqMap': {u'doc1': 1.0, u'doc10': 1.0, u'doc11': 0.9999999999999999, u'doc12': 1.0, u'doc13': 1.0, u'doc14': 1.0, u'doc15': 1.0, u'doc16': 1.0, u'doc17': 1.0, u'doc18': 1.0, ...}, 'docIndex': [u'doc26', u'doc28', u'doc29', u'doc35', u'doc36', u'doc38', u'doc1', u'doc2', u'doc4', u'doc5', u'doc9', u'doc10', u'doc12', u'doc13', u'doc14', u'doc15', u'doc16', u'doc17', u'doc18', u'doc19', ...], 'final': {'Doc->Topic': [0, 3, 0, 0, 3, 6, 0, 2, 0, 0, 1, 1, 3, 1, 2, 1, 1, 1, 1, 1, ...], 'Topic->Term': [u'cloud', u'erp', u'system', u'data', u'base', u'inform', u'judgment', u'process', u'univers', u'imag'], 'docFreqMap': {u'doc1': 1.0, u'doc10': 1.0, u'doc11': 0.9999999999999999, u'doc12': 1.0, u'doc13': 1.0, u'doc14': 1.0, u'doc15': 1.0, u'doc16': 1.0, u'doc17': 1.0, u'doc18': 1.0, ...}, 'docIndex': [u'doc26', u'doc28', u'doc29', u'doc35', u'doc36', u'doc38', u'doc1', u'doc2', u'doc4', u'doc5', u'doc9', u'doc10', u'doc12', u'doc13', u'doc14', u'doc15', u'doc16', u'doc17', u'doc18', u'doc19', ...], 'final': {'Doc->Topic': [0, 3, 0, 0, 3, 6, 0, 2, 0, 0, 1, 1, 3, 1, 2, 1, 1, 1, 1, 1, ...], 'Topic->Term': [u'cloud', u'erp', u'system', u'data', u'base', u'inform', u'judgment', u'process', u'univers', u'imag'], 'docFreqMap': {u'doc1': 1.0, u'doc10': 1.0, u'doc11': 0.9999999999999999, u'doc12': 1.0, u'doc13': 1.0, u'doc14': 1.0, u'doc15': 1.0, u'doc16': 1.0, u'doc17': 1.0, u'doc18': 1.0, ...}, 'docIndex': [u'doc26', u'doc28', u'doc29', u'doc35', u'doc36', u'doc38', u'doc1', u'doc2', u'doc4', u'doc5', u'doc9', u'doc10', u'doc12', u'doc13', u'doc14', u'doc15', u'doc16', u'doc17', u'doc18', u'doc19', ...], 'final': {'Doc->Topic': [...], 'Topic->Term': [...], 'docFreqMap': {...}, 'docIndex': [...], 'final': {...}, 'topicIndex': [...], 'topicMapping': [...]}, 'topicIndex': ['Topic 1', 'Topic 2', 'Topic 3', 'Topic 4', 'Topic 5', 'Topic 6', 'Topic 7', 'Topic 8', 'Topic 9', 'Topic 10'], 'topicMapping': [0, 1, 2, 3, 4, 5, 6, 7, 8, 9]}, 'topicIndex': ['Topic 1', 'Topic 2', 'Topic 3', 'Topic 4', 'Topic 5', 'Topic 6', 'Topic 7', 'Topic 8', 'Topic 9', 'Topic 10'], 'topicMapping': [0, 1, 2, 3, 4, 5, 6, 7, 8, 9]}, 'topicIndex': ['Topic 1', 'Topic 2', 'Topic 3', 'Topic 4', 'Topic 5', 'Topic 6', 'Topic 7', 'Topic 8', 'Topic 9', 'Topic 10'], 'topicMapping': [0, 1, 2, 3, 4, 5, 6, 7, 8, 9]}, 'topicIndex': ['Topic 1', 'Topic 2', 'Topic 3', 'Topic 4', 'Topic 5', 'Topic 6', 'Topic 7', 'Topic 8', 'Topic 9', 'Topic 10'], 'topicMapping': [0, 1, 2, 3, 4, 5, 6, 7, 8, 9]}, 'topicIndex': ['Topic 1', 'Topic 2', 'Topic 3', 'Topic 4', 'Topic 5', 'Topic 6', 'Topic 7', 'Topic 8', 'Topic 9', 'Topic 10'], 'topicMapping': [0, 1, 2, 3, 4, 5, 6, 7, 8, 9]}, skipkeys=False, ensure_ascii=True, check_circular=True, allow_nan=True, cls=<class 'json.encoder.JSONEncoder'>, indent=2, separators=None, encoding='utf-8', default=None, sort_keys=True, **kw={})"
p164
sg85
S'dumps'
p165
sa(dp166
g62
S'/System/Library/Frameworks/Python.framework/Versions/2.7/lib/python2.7/json/encoder.py'
p167
sg64
(dp168
S'chunks'
p169
S'<generator object _iterencode>'
p170
sS'builtinlist'
p171
S"<type 'list'>"
p172
ssg70
I209
sg71
(dp173
I204
S"        # This doesn't pass the iterator directly to ''.join() because the"
p174
sI205
S"        # exceptions aren't as detailed.  The list call should be roughly"
p175
sI206
S"        # equivalent to the PySequence_Fast that ''.join() would do."
p176
sI207
S'        chunks = self.iterencode(o, _one_shot=True)'
p177
sI208
S'        if not isinstance(chunks, (list, tuple)):'
p178
sI209
S'            chunks = list(chunks)'
p179
sI210
S"        return ''.join(chunks)"
p180
sI211
S''
sI212
S'    def iterencode(self, o, _one_shot=False):'
p181
sI213
S'        """Encode the given object and yield each string'
p182
ssg83
S"(self=<json.encoder.JSONEncoder object>, o={'Doc->Topic': [0, 3, 0, 0, 3, 6, 0, 2, 0, 0, 1, 1, 3, 1, 2, 1, 1, 1, 1, 1, ...], 'Topic->Term': [u'cloud', u'erp', u'system', u'data', u'base', u'inform', u'judgment', u'process', u'univers', u'imag'], 'docFreqMap': {u'doc1': 1.0, u'doc10': 1.0, u'doc11': 0.9999999999999999, u'doc12': 1.0, u'doc13': 1.0, u'doc14': 1.0, u'doc15': 1.0, u'doc16': 1.0, u'doc17': 1.0, u'doc18': 1.0, ...}, 'docIndex': [u'doc26', u'doc28', u'doc29', u'doc35', u'doc36', u'doc38', u'doc1', u'doc2', u'doc4', u'doc5', u'doc9', u'doc10', u'doc12', u'doc13', u'doc14', u'doc15', u'doc16', u'doc17', u'doc18', u'doc19', ...], 'final': {'Doc->Topic': [0, 3, 0, 0, 3, 6, 0, 2, 0, 0, 1, 1, 3, 1, 2, 1, 1, 1, 1, 1, ...], 'Topic->Term': [u'cloud', u'erp', u'system', u'data', u'base', u'inform', u'judgment', u'process', u'univers', u'imag'], 'docFreqMap': {u'doc1': 1.0, u'doc10': 1.0, u'doc11': 0.9999999999999999, u'doc12': 1.0, u'doc13': 1.0, u'doc14': 1.0, u'doc15': 1.0, u'doc16': 1.0, u'doc17': 1.0, u'doc18': 1.0, ...}, 'docIndex': [u'doc26', u'doc28', u'doc29', u'doc35', u'doc36', u'doc38', u'doc1', u'doc2', u'doc4', u'doc5', u'doc9', u'doc10', u'doc12', u'doc13', u'doc14', u'doc15', u'doc16', u'doc17', u'doc18', u'doc19', ...], 'final': {'Doc->Topic': [0, 3, 0, 0, 3, 6, 0, 2, 0, 0, 1, 1, 3, 1, 2, 1, 1, 1, 1, 1, ...], 'Topic->Term': [u'cloud', u'erp', u'system', u'data', u'base', u'inform', u'judgment', u'process', u'univers', u'imag'], 'docFreqMap': {u'doc1': 1.0, u'doc10': 1.0, u'doc11': 0.9999999999999999, u'doc12': 1.0, u'doc13': 1.0, u'doc14': 1.0, u'doc15': 1.0, u'doc16': 1.0, u'doc17': 1.0, u'doc18': 1.0, ...}, 'docIndex': [u'doc26', u'doc28', u'doc29', u'doc35', u'doc36', u'doc38', u'doc1', u'doc2', u'doc4', u'doc5', u'doc9', u'doc10', u'doc12', u'doc13', u'doc14', u'doc15', u'doc16', u'doc17', u'doc18', u'doc19', ...], 'final': {'Doc->Topic': [0, 3, 0, 0, 3, 6, 0, 2, 0, 0, 1, 1, 3, 1, 2, 1, 1, 1, 1, 1, ...], 'Topic->Term': [u'cloud', u'erp', u'system', u'data', u'base', u'inform', u'judgment', u'process', u'univers', u'imag'], 'docFreqMap': {u'doc1': 1.0, u'doc10': 1.0, u'doc11': 0.9999999999999999, u'doc12': 1.0, u'doc13': 1.0, u'doc14': 1.0, u'doc15': 1.0, u'doc16': 1.0, u'doc17': 1.0, u'doc18': 1.0, ...}, 'docIndex': [u'doc26', u'doc28', u'doc29', u'doc35', u'doc36', u'doc38', u'doc1', u'doc2', u'doc4', u'doc5', u'doc9', u'doc10', u'doc12', u'doc13', u'doc14', u'doc15', u'doc16', u'doc17', u'doc18', u'doc19', ...], 'final': {'Doc->Topic': [0, 3, 0, 0, 3, 6, 0, 2, 0, 0, 1, 1, 3, 1, 2, 1, 1, 1, 1, 1, ...], 'Topic->Term': [u'cloud', u'erp', u'system', u'data', u'base', u'inform', u'judgment', u'process', u'univers', u'imag'], 'docFreqMap': {u'doc1': 1.0, u'doc10': 1.0, u'doc11': 0.9999999999999999, u'doc12': 1.0, u'doc13': 1.0, u'doc14': 1.0, u'doc15': 1.0, u'doc16': 1.0, u'doc17': 1.0, u'doc18': 1.0, ...}, 'docIndex': [u'doc26', u'doc28', u'doc29', u'doc35', u'doc36', u'doc38', u'doc1', u'doc2', u'doc4', u'doc5', u'doc9', u'doc10', u'doc12', u'doc13', u'doc14', u'doc15', u'doc16', u'doc17', u'doc18', u'doc19', ...], 'final': {'Doc->Topic': [...], 'Topic->Term': [...], 'docFreqMap': {...}, 'docIndex': [...], 'final': {...}, 'topicIndex': [...], 'topicMapping': [...]}, 'topicIndex': ['Topic 1', 'Topic 2', 'Topic 3', 'Topic 4', 'Topic 5', 'Topic 6', 'Topic 7', 'Topic 8', 'Topic 9', 'Topic 10'], 'topicMapping': [0, 1, 2, 3, 4, 5, 6, 7, 8, 9]}, 'topicIndex': ['Topic 1', 'Topic 2', 'Topic 3', 'Topic 4', 'Topic 5', 'Topic 6', 'Topic 7', 'Topic 8', 'Topic 9', 'Topic 10'], 'topicMapping': [0, 1, 2, 3, 4, 5, 6, 7, 8, 9]}, 'topicIndex': ['Topic 1', 'Topic 2', 'Topic 3', 'Topic 4', 'Topic 5', 'Topic 6', 'Topic 7', 'Topic 8', 'Topic 9', 'Topic 10'], 'topicMapping': [0, 1, 2, 3, 4, 5, 6, 7, 8, 9]}, 'topicIndex': ['Topic 1', 'Topic 2', 'Topic 3', 'Topic 4', 'Topic 5', 'Topic 6', 'Topic 7', 'Topic 8', 'Topic 9', 'Topic 10'], 'topicMapping': [0, 1, 2, 3, 4, 5, 6, 7, 8, 9]}, 'topicIndex': ['Topic 1', 'Topic 2', 'Topic 3', 'Topic 4', 'Topic 5', 'Topic 6', 'Topic 7', 'Topic 8', 'Topic 9', 'Topic 10'], 'topicMapping': [0, 1, 2, 3, 4, 5, 6, 7, 8, 9]})"
p183
sg85
S'encode'
p184
sa(dp185
g62
S'/System/Library/Frameworks/Python.framework/Versions/2.7/lib/python2.7/json/encoder.py'
p186
sg64
(dp187
S'_current_indent_level'
p188
S'0'
sS'chunk'
p189
S"': '"
p190
sS'o'
S"{'Doc->Topic': [0, 3, 0, 0, 3, 6, 0, 2, 0, 0, 1, 1, 3, 1, 2, 1, 1, 1, 1, 1, ...], 'Topic->Term': [u'cloud', u'erp', u'system', u'data', u'base', u'inform', u'judgment', u'process', u'univers', u'imag'], 'docFreqMap': {u'doc1': 1.0, u'doc10': 1.0, u'doc11': 0.9999999999999999, u'doc12': 1.0, u'doc13': 1.0, u'doc14': 1.0, u'doc15': 1.0, u'doc16': 1.0, u'doc17': 1.0, u'doc18': 1.0, ...}, 'docIndex': [u'doc26', u'doc28', u'doc29', u'doc35', u'doc36', u'doc38', u'doc1', u'doc2', u'doc4', u'doc5', u'doc9', u'doc10', u'doc12', u'doc13', u'doc14', u'doc15', u'doc16', u'doc17', u'doc18', u'doc19', ...], 'final': {'Doc->Topic': [0, 3, 0, 0, 3, 6, 0, 2, 0, 0, 1, 1, 3, 1, 2, 1, 1, 1, 1, 1, ...], 'Topic->Term': [u'cloud', u'erp', u'system', u'data', u'base', u'inform', u'judgment', u'process', u'univers', u'imag'], 'docFreqMap': {u'doc1': 1.0, u'doc10': 1.0, u'doc11': 0.9999999999999999, u'doc12': 1.0, u'doc13': 1.0, u'doc14': 1.0, u'doc15': 1.0, u'doc16': 1.0, u'doc17': 1.0, u'doc18': 1.0, ...}, 'docIndex': [u'doc26', u'doc28', u'doc29', u'doc35', u'doc36', u'doc38', u'doc1', u'doc2', u'doc4', u'doc5', u'doc9', u'doc10', u'doc12', u'doc13', u'doc14', u'doc15', u'doc16', u'doc17', u'doc18', u'doc19', ...], 'final': {'Doc->Topic': [0, 3, 0, 0, 3, 6, 0, 2, 0, 0, 1, 1, 3, 1, 2, 1, 1, 1, 1, 1, ...], 'Topic->Term': [u'cloud', u'erp', u'system', u'data', u'base', u'inform', u'judgment', u'process', u'univers', u'imag'], 'docFreqMap': {u'doc1': 1.0, u'doc10': 1.0, u'doc11': 0.9999999999999999, u'doc12': 1.0, u'doc13': 1.0, u'doc14': 1.0, u'doc15': 1.0, u'doc16': 1.0, u'doc17': 1.0, u'doc18': 1.0, ...}, 'docIndex': [u'doc26', u'doc28', u'doc29', u'doc35', u'doc36', u'doc38', u'doc1', u'doc2', u'doc4', u'doc5', u'doc9', u'doc10', u'doc12', u'doc13', u'doc14', u'doc15', u'doc16', u'doc17', u'doc18', u'doc19', ...], 'final': {'Doc->Topic': [0, 3, 0, 0, 3, 6, 0, 2, 0, 0, 1, 1, 3, 1, 2, 1, 1, 1, 1, 1, ...], 'Topic->Term': [u'cloud', u'erp', u'system', u'data', u'base', u'inform', u'judgment', u'process', u'univers', u'imag'], 'docFreqMap': {u'doc1': 1.0, u'doc10': 1.0, u'doc11': 0.9999999999999999, u'doc12': 1.0, u'doc13': 1.0, u'doc14': 1.0, u'doc15': 1.0, u'doc16': 1.0, u'doc17': 1.0, u'doc18': 1.0, ...}, 'docIndex': [u'doc26', u'doc28', u'doc29', u'doc35', u'doc36', u'doc38', u'doc1', u'doc2', u'doc4', u'doc5', u'doc9', u'doc10', u'doc12', u'doc13', u'doc14', u'doc15', u'doc16', u'doc17', u'doc18', u'doc19', ...], 'final': {'Doc->Topic': [0, 3, 0, 0, 3, 6, 0, 2, 0, 0, 1, 1, 3, 1, 2, 1, 1, 1, 1, 1, ...], 'Topic->Term': [u'cloud', u'erp', u'system', u'data', u'base', u'inform', u'judgment', u'process', u'univers', u'imag'], 'docFreqMap': {u'doc1': 1.0, u'doc10': 1.0, u'doc11': 0.9999999999999999, u'doc12': 1.0, u'doc13': 1.0, u'doc14': 1.0, u'doc15': 1.0, u'doc16': 1.0, u'doc17': 1.0, u'doc18': 1.0, ...}, 'docIndex': [u'doc26', u'doc28', u'doc29', u'doc35', u'doc36', u'doc38', u'doc1', u'doc2', u'doc4', u'doc5', u'doc9', u'doc10', u'doc12', u'doc13', u'doc14', u'doc15', u'doc16', u'doc17', u'doc18', u'doc19', ...], 'final': {'Doc->Topic': [...], 'Topic->Term': [...], 'docFreqMap': {...}, 'docIndex': [...], 'final': {...}, 'topicIndex': [...], 'topicMapping': [...]}, 'topicIndex': ['Topic 1', 'Topic 2', 'Topic 3', 'Topic 4', 'Topic 5', 'Topic 6', 'Topic 7', 'Topic 8', 'Topic 9', 'Topic 10'], 'topicMapping': [0, 1, 2, 3, 4, 5, 6, 7, 8, 9]}, 'topicIndex': ['Topic 1', 'Topic 2', 'Topic 3', 'Topic 4', 'Topic 5', 'Topic 6', 'Topic 7', 'Topic 8', 'Topic 9', 'Topic 10'], 'topicMapping': [0, 1, 2, 3, 4, 5, 6, 7, 8, 9]}, 'topicIndex': ['Topic 1', 'Topic 2', 'Topic 3', 'Topic 4', 'Topic 5', 'Topic 6', 'Topic 7', 'Topic 8', 'Topic 9', 'Topic 10'], 'topicMapping': [0, 1, 2, 3, 4, 5, 6, 7, 8, 9]}, 'topicIndex': ['Topic 1', 'Topic 2', 'Topic 3', 'Topic 4', 'Topic 5', 'Topic 6', 'Topic 7', 'Topic 8', 'Topic 9', 'Topic 10'], 'topicMapping': [0, 1, 2, 3, 4, 5, 6, 7, 8, 9]}, 'topicIndex': ['Topic 1', 'Topic 2', 'Topic 3', 'Topic 4', 'Topic 5', 'Topic 6', 'Topic 7', 'Topic 8', 'Topic 9', 'Topic 10'], 'topicMapping': [0, 1, 2, 3, 4, 5, 6, 7, 8, 9]}"
p191
sS'_iterencode_dict'
p192
S'<function _iterencode_dict>'
p193
ssg70
I434
sg71
(dp194
I429
S'            yield _floatstr(o)'
p195
sI430
S'        elif isinstance(o, (list, tuple)):'
p196
sI431
S'            for chunk in _iterencode_list(o, _current_indent_level):'
p197
sI432
S'                yield chunk'
p198
sI433
S'        elif isinstance(o, dict):'
p199
sI434
S'            for chunk in _iterencode_dict(o, _current_indent_level):'
p200
sI435
S'                yield chunk'
p201
sI436
S'        else:'
p202
sI437
S'            if markers is not None:'
p203
sI438
S'                markerid = id(o)'
p204
ssg83
S"(o={'Doc->Topic': [0, 3, 0, 0, 3, 6, 0, 2, 0, 0, 1, 1, 3, 1, 2, 1, 1, 1, 1, 1, ...], 'Topic->Term': [u'cloud', u'erp', u'system', u'data', u'base', u'inform', u'judgment', u'process', u'univers', u'imag'], 'docFreqMap': {u'doc1': 1.0, u'doc10': 1.0, u'doc11': 0.9999999999999999, u'doc12': 1.0, u'doc13': 1.0, u'doc14': 1.0, u'doc15': 1.0, u'doc16': 1.0, u'doc17': 1.0, u'doc18': 1.0, ...}, 'docIndex': [u'doc26', u'doc28', u'doc29', u'doc35', u'doc36', u'doc38', u'doc1', u'doc2', u'doc4', u'doc5', u'doc9', u'doc10', u'doc12', u'doc13', u'doc14', u'doc15', u'doc16', u'doc17', u'doc18', u'doc19', ...], 'final': {'Doc->Topic': [0, 3, 0, 0, 3, 6, 0, 2, 0, 0, 1, 1, 3, 1, 2, 1, 1, 1, 1, 1, ...], 'Topic->Term': [u'cloud', u'erp', u'system', u'data', u'base', u'inform', u'judgment', u'process', u'univers', u'imag'], 'docFreqMap': {u'doc1': 1.0, u'doc10': 1.0, u'doc11': 0.9999999999999999, u'doc12': 1.0, u'doc13': 1.0, u'doc14': 1.0, u'doc15': 1.0, u'doc16': 1.0, u'doc17': 1.0, u'doc18': 1.0, ...}, 'docIndex': [u'doc26', u'doc28', u'doc29', u'doc35', u'doc36', u'doc38', u'doc1', u'doc2', u'doc4', u'doc5', u'doc9', u'doc10', u'doc12', u'doc13', u'doc14', u'doc15', u'doc16', u'doc17', u'doc18', u'doc19', ...], 'final': {'Doc->Topic': [0, 3, 0, 0, 3, 6, 0, 2, 0, 0, 1, 1, 3, 1, 2, 1, 1, 1, 1, 1, ...], 'Topic->Term': [u'cloud', u'erp', u'system', u'data', u'base', u'inform', u'judgment', u'process', u'univers', u'imag'], 'docFreqMap': {u'doc1': 1.0, u'doc10': 1.0, u'doc11': 0.9999999999999999, u'doc12': 1.0, u'doc13': 1.0, u'doc14': 1.0, u'doc15': 1.0, u'doc16': 1.0, u'doc17': 1.0, u'doc18': 1.0, ...}, 'docIndex': [u'doc26', u'doc28', u'doc29', u'doc35', u'doc36', u'doc38', u'doc1', u'doc2', u'doc4', u'doc5', u'doc9', u'doc10', u'doc12', u'doc13', u'doc14', u'doc15', u'doc16', u'doc17', u'doc18', u'doc19', ...], 'final': {'Doc->Topic': [0, 3, 0, 0, 3, 6, 0, 2, 0, 0, 1, 1, 3, 1, 2, 1, 1, 1, 1, 1, ...], 'Topic->Term': [u'cloud', u'erp', u'system', u'data', u'base', u'inform', u'judgment', u'process', u'univers', u'imag'], 'docFreqMap': {u'doc1': 1.0, u'doc10': 1.0, u'doc11': 0.9999999999999999, u'doc12': 1.0, u'doc13': 1.0, u'doc14': 1.0, u'doc15': 1.0, u'doc16': 1.0, u'doc17': 1.0, u'doc18': 1.0, ...}, 'docIndex': [u'doc26', u'doc28', u'doc29', u'doc35', u'doc36', u'doc38', u'doc1', u'doc2', u'doc4', u'doc5', u'doc9', u'doc10', u'doc12', u'doc13', u'doc14', u'doc15', u'doc16', u'doc17', u'doc18', u'doc19', ...], 'final': {'Doc->Topic': [0, 3, 0, 0, 3, 6, 0, 2, 0, 0, 1, 1, 3, 1, 2, 1, 1, 1, 1, 1, ...], 'Topic->Term': [u'cloud', u'erp', u'system', u'data', u'base', u'inform', u'judgment', u'process', u'univers', u'imag'], 'docFreqMap': {u'doc1': 1.0, u'doc10': 1.0, u'doc11': 0.9999999999999999, u'doc12': 1.0, u'doc13': 1.0, u'doc14': 1.0, u'doc15': 1.0, u'doc16': 1.0, u'doc17': 1.0, u'doc18': 1.0, ...}, 'docIndex': [u'doc26', u'doc28', u'doc29', u'doc35', u'doc36', u'doc38', u'doc1', u'doc2', u'doc4', u'doc5', u'doc9', u'doc10', u'doc12', u'doc13', u'doc14', u'doc15', u'doc16', u'doc17', u'doc18', u'doc19', ...], 'final': {'Doc->Topic': [...], 'Topic->Term': [...], 'docFreqMap': {...}, 'docIndex': [...], 'final': {...}, 'topicIndex': [...], 'topicMapping': [...]}, 'topicIndex': ['Topic 1', 'Topic 2', 'Topic 3', 'Topic 4', 'Topic 5', 'Topic 6', 'Topic 7', 'Topic 8', 'Topic 9', 'Topic 10'], 'topicMapping': [0, 1, 2, 3, 4, 5, 6, 7, 8, 9]}, 'topicIndex': ['Topic 1', 'Topic 2', 'Topic 3', 'Topic 4', 'Topic 5', 'Topic 6', 'Topic 7', 'Topic 8', 'Topic 9', 'Topic 10'], 'topicMapping': [0, 1, 2, 3, 4, 5, 6, 7, 8, 9]}, 'topicIndex': ['Topic 1', 'Topic 2', 'Topic 3', 'Topic 4', 'Topic 5', 'Topic 6', 'Topic 7', 'Topic 8', 'Topic 9', 'Topic 10'], 'topicMapping': [0, 1, 2, 3, 4, 5, 6, 7, 8, 9]}, 'topicIndex': ['Topic 1', 'Topic 2', 'Topic 3', 'Topic 4', 'Topic 5', 'Topic 6', 'Topic 7', 'Topic 8', 'Topic 9', 'Topic 10'], 'topicMapping': [0, 1, 2, 3, 4, 5, 6, 7, 8, 9]}, 'topicIndex': ['Topic 1', 'Topic 2', 'Topic 3', 'Topic 4', 'Topic 5', 'Topic 6', 'Topic 7', 'Topic 8', 'Topic 9', 'Topic 10'], 'topicMapping': [0, 1, 2, 3, 4, 5, 6, 7, 8, 9]}, _current_indent_level=0)"
p205
sg85
S'_iterencode'
p206
sa(dp207
g62
S'/System/Library/Frameworks/Python.framework/Versions/2.7/lib/python2.7/json/encoder.py'
p208
sg64
(dp209
S'chunks'
p210
S'<generator object _iterencode_dict>'
p211
sS'chunk'
p212
S"']'"
p213
ssg70
I408
sg71
(dp214
I403
S'                    chunks = _iterencode_list(value, _current_indent_level)'
p215
sI404
S'                elif isinstance(value, dict):'
p216
sI405
S'                    chunks = _iterencode_dict(value, _current_indent_level)'
p217
sI406
S'                else:'
p218
sI407
S'                    chunks = _iterencode(value, _current_indent_level)'
p219
sI408
S'                for chunk in chunks:'
p220
sI409
S'                    yield chunk'
p221
sI410
S'        if newline_indent is not None:'
p222
sI411
S'            _current_indent_level -= 1'
p223
sI412
S"            yield '\\n' + (' ' * (_indent * _current_indent_level))"
p224
ssg83
S"(dct={'Doc->Topic': [0, 3, 0, 0, 3, 6, 0, 2, 0, 0, 1, 1, 3, 1, 2, 1, 1, 1, 1, 1, ...], 'Topic->Term': [u'cloud', u'erp', u'system', u'data', u'base', u'inform', u'judgment', u'process', u'univers', u'imag'], 'docFreqMap': {u'doc1': 1.0, u'doc10': 1.0, u'doc11': 0.9999999999999999, u'doc12': 1.0, u'doc13': 1.0, u'doc14': 1.0, u'doc15': 1.0, u'doc16': 1.0, u'doc17': 1.0, u'doc18': 1.0, ...}, 'docIndex': [u'doc26', u'doc28', u'doc29', u'doc35', u'doc36', u'doc38', u'doc1', u'doc2', u'doc4', u'doc5', u'doc9', u'doc10', u'doc12', u'doc13', u'doc14', u'doc15', u'doc16', u'doc17', u'doc18', u'doc19', ...], 'final': {'Doc->Topic': [0, 3, 0, 0, 3, 6, 0, 2, 0, 0, 1, 1, 3, 1, 2, 1, 1, 1, 1, 1, ...], 'Topic->Term': [u'cloud', u'erp', u'system', u'data', u'base', u'inform', u'judgment', u'process', u'univers', u'imag'], 'docFreqMap': {u'doc1': 1.0, u'doc10': 1.0, u'doc11': 0.9999999999999999, u'doc12': 1.0, u'doc13': 1.0, u'doc14': 1.0, u'doc15': 1.0, u'doc16': 1.0, u'doc17': 1.0, u'doc18': 1.0, ...}, 'docIndex': [u'doc26', u'doc28', u'doc29', u'doc35', u'doc36', u'doc38', u'doc1', u'doc2', u'doc4', u'doc5', u'doc9', u'doc10', u'doc12', u'doc13', u'doc14', u'doc15', u'doc16', u'doc17', u'doc18', u'doc19', ...], 'final': {'Doc->Topic': [0, 3, 0, 0, 3, 6, 0, 2, 0, 0, 1, 1, 3, 1, 2, 1, 1, 1, 1, 1, ...], 'Topic->Term': [u'cloud', u'erp', u'system', u'data', u'base', u'inform', u'judgment', u'process', u'univers', u'imag'], 'docFreqMap': {u'doc1': 1.0, u'doc10': 1.0, u'doc11': 0.9999999999999999, u'doc12': 1.0, u'doc13': 1.0, u'doc14': 1.0, u'doc15': 1.0, u'doc16': 1.0, u'doc17': 1.0, u'doc18': 1.0, ...}, 'docIndex': [u'doc26', u'doc28', u'doc29', u'doc35', u'doc36', u'doc38', u'doc1', u'doc2', u'doc4', u'doc5', u'doc9', u'doc10', u'doc12', u'doc13', u'doc14', u'doc15', u'doc16', u'doc17', u'doc18', u'doc19', ...], 'final': {'Doc->Topic': [0, 3, 0, 0, 3, 6, 0, 2, 0, 0, 1, 1, 3, 1, 2, 1, 1, 1, 1, 1, ...], 'Topic->Term': [u'cloud', u'erp', u'system', u'data', u'base', u'inform', u'judgment', u'process', u'univers', u'imag'], 'docFreqMap': {u'doc1': 1.0, u'doc10': 1.0, u'doc11': 0.9999999999999999, u'doc12': 1.0, u'doc13': 1.0, u'doc14': 1.0, u'doc15': 1.0, u'doc16': 1.0, u'doc17': 1.0, u'doc18': 1.0, ...}, 'docIndex': [u'doc26', u'doc28', u'doc29', u'doc35', u'doc36', u'doc38', u'doc1', u'doc2', u'doc4', u'doc5', u'doc9', u'doc10', u'doc12', u'doc13', u'doc14', u'doc15', u'doc16', u'doc17', u'doc18', u'doc19', ...], 'final': {'Doc->Topic': [0, 3, 0, 0, 3, 6, 0, 2, 0, 0, 1, 1, 3, 1, 2, 1, 1, 1, 1, 1, ...], 'Topic->Term': [u'cloud', u'erp', u'system', u'data', u'base', u'inform', u'judgment', u'process', u'univers', u'imag'], 'docFreqMap': {u'doc1': 1.0, u'doc10': 1.0, u'doc11': 0.9999999999999999, u'doc12': 1.0, u'doc13': 1.0, u'doc14': 1.0, u'doc15': 1.0, u'doc16': 1.0, u'doc17': 1.0, u'doc18': 1.0, ...}, 'docIndex': [u'doc26', u'doc28', u'doc29', u'doc35', u'doc36', u'doc38', u'doc1', u'doc2', u'doc4', u'doc5', u'doc9', u'doc10', u'doc12', u'doc13', u'doc14', u'doc15', u'doc16', u'doc17', u'doc18', u'doc19', ...], 'final': {'Doc->Topic': [...], 'Topic->Term': [...], 'docFreqMap': {...}, 'docIndex': [...], 'final': {...}, 'topicIndex': [...], 'topicMapping': [...]}, 'topicIndex': ['Topic 1', 'Topic 2', 'Topic 3', 'Topic 4', 'Topic 5', 'Topic 6', 'Topic 7', 'Topic 8', 'Topic 9', 'Topic 10'], 'topicMapping': [0, 1, 2, 3, 4, 5, 6, 7, 8, 9]}, 'topicIndex': ['Topic 1', 'Topic 2', 'Topic 3', 'Topic 4', 'Topic 5', 'Topic 6', 'Topic 7', 'Topic 8', 'Topic 9', 'Topic 10'], 'topicMapping': [0, 1, 2, 3, 4, 5, 6, 7, 8, 9]}, 'topicIndex': ['Topic 1', 'Topic 2', 'Topic 3', 'Topic 4', 'Topic 5', 'Topic 6', 'Topic 7', 'Topic 8', 'Topic 9', 'Topic 10'], 'topicMapping': [0, 1, 2, 3, 4, 5, 6, 7, 8, 9]}, 'topicIndex': ['Topic 1', 'Topic 2', 'Topic 3', 'Topic 4', 'Topic 5', 'Topic 6', 'Topic 7', 'Topic 8', 'Topic 9', 'Topic 10'], 'topicMapping': [0, 1, 2, 3, 4, 5, 6, 7, 8, 9]}, 'topicIndex': ['Topic 1', 'Topic 2', 'Topic 3', 'Topic 4', 'Topic 5', 'Topic 6', 'Topic 7', 'Topic 8', 'Topic 9', 'Topic 10'], 'topicMapping': [0, 1, 2, 3, 4, 5, 6, 7, 8, 9]}, _current_indent_level=1)"
p225
sg85
S'_iterencode_dict'
p226
sa(dp227
g62
S'/System/Library/Frameworks/Python.framework/Versions/2.7/lib/python2.7/json/encoder.py'
p228
sg64
(dp229
S'ValueError'
p230
S"<type 'exceptions.ValueError'>"
p231
ssg70
I348
sg71
(dp232
I352
S'            _current_indent_level += 1'
p233
sI343
S"            yield '{}'"
p234
sI344
S'            return'
p235
sI345
S'        if markers is not None:'
p236
sI346
S'            markerid = id(dct)'
p237
sI347
S'            if markerid in markers:'
p238
sI348
S'                raise ValueError("Circular reference detected")'
p239
sI349
S'            markers[markerid] = dct'
p240
sI350
S"        yield '{'"
p241
sI351
S'        if _indent is not None:'
p242
ssg83
S"(dct={'Doc->Topic': [0, 3, 0, 0, 3, 6, 0, 2, 0, 0, 1, 1, 3, 1, 2, 1, 1, 1, 1, 1, ...], 'Topic->Term': [u'cloud', u'erp', u'system', u'data', u'base', u'inform', u'judgment', u'process', u'univers', u'imag'], 'docFreqMap': {u'doc1': 1.0, u'doc10': 1.0, u'doc11': 0.9999999999999999, u'doc12': 1.0, u'doc13': 1.0, u'doc14': 1.0, u'doc15': 1.0, u'doc16': 1.0, u'doc17': 1.0, u'doc18': 1.0, ...}, 'docIndex': [u'doc26', u'doc28', u'doc29', u'doc35', u'doc36', u'doc38', u'doc1', u'doc2', u'doc4', u'doc5', u'doc9', u'doc10', u'doc12', u'doc13', u'doc14', u'doc15', u'doc16', u'doc17', u'doc18', u'doc19', ...], 'final': {'Doc->Topic': [0, 3, 0, 0, 3, 6, 0, 2, 0, 0, 1, 1, 3, 1, 2, 1, 1, 1, 1, 1, ...], 'Topic->Term': [u'cloud', u'erp', u'system', u'data', u'base', u'inform', u'judgment', u'process', u'univers', u'imag'], 'docFreqMap': {u'doc1': 1.0, u'doc10': 1.0, u'doc11': 0.9999999999999999, u'doc12': 1.0, u'doc13': 1.0, u'doc14': 1.0, u'doc15': 1.0, u'doc16': 1.0, u'doc17': 1.0, u'doc18': 1.0, ...}, 'docIndex': [u'doc26', u'doc28', u'doc29', u'doc35', u'doc36', u'doc38', u'doc1', u'doc2', u'doc4', u'doc5', u'doc9', u'doc10', u'doc12', u'doc13', u'doc14', u'doc15', u'doc16', u'doc17', u'doc18', u'doc19', ...], 'final': {'Doc->Topic': [0, 3, 0, 0, 3, 6, 0, 2, 0, 0, 1, 1, 3, 1, 2, 1, 1, 1, 1, 1, ...], 'Topic->Term': [u'cloud', u'erp', u'system', u'data', u'base', u'inform', u'judgment', u'process', u'univers', u'imag'], 'docFreqMap': {u'doc1': 1.0, u'doc10': 1.0, u'doc11': 0.9999999999999999, u'doc12': 1.0, u'doc13': 1.0, u'doc14': 1.0, u'doc15': 1.0, u'doc16': 1.0, u'doc17': 1.0, u'doc18': 1.0, ...}, 'docIndex': [u'doc26', u'doc28', u'doc29', u'doc35', u'doc36', u'doc38', u'doc1', u'doc2', u'doc4', u'doc5', u'doc9', u'doc10', u'doc12', u'doc13', u'doc14', u'doc15', u'doc16', u'doc17', u'doc18', u'doc19', ...], 'final': {'Doc->Topic': [0, 3, 0, 0, 3, 6, 0, 2, 0, 0, 1, 1, 3, 1, 2, 1, 1, 1, 1, 1, ...], 'Topic->Term': [u'cloud', u'erp', u'system', u'data', u'base', u'inform', u'judgment', u'process', u'univers', u'imag'], 'docFreqMap': {u'doc1': 1.0, u'doc10': 1.0, u'doc11': 0.9999999999999999, u'doc12': 1.0, u'doc13': 1.0, u'doc14': 1.0, u'doc15': 1.0, u'doc16': 1.0, u'doc17': 1.0, u'doc18': 1.0, ...}, 'docIndex': [u'doc26', u'doc28', u'doc29', u'doc35', u'doc36', u'doc38', u'doc1', u'doc2', u'doc4', u'doc5', u'doc9', u'doc10', u'doc12', u'doc13', u'doc14', u'doc15', u'doc16', u'doc17', u'doc18', u'doc19', ...], 'final': {'Doc->Topic': [0, 3, 0, 0, 3, 6, 0, 2, 0, 0, 1, 1, 3, 1, 2, 1, 1, 1, 1, 1, ...], 'Topic->Term': [u'cloud', u'erp', u'system', u'data', u'base', u'inform', u'judgment', u'process', u'univers', u'imag'], 'docFreqMap': {u'doc1': 1.0, u'doc10': 1.0, u'doc11': 0.9999999999999999, u'doc12': 1.0, u'doc13': 1.0, u'doc14': 1.0, u'doc15': 1.0, u'doc16': 1.0, u'doc17': 1.0, u'doc18': 1.0, ...}, 'docIndex': [u'doc26', u'doc28', u'doc29', u'doc35', u'doc36', u'doc38', u'doc1', u'doc2', u'doc4', u'doc5', u'doc9', u'doc10', u'doc12', u'doc13', u'doc14', u'doc15', u'doc16', u'doc17', u'doc18', u'doc19', ...], 'final': {'Doc->Topic': [...], 'Topic->Term': [...], 'docFreqMap': {...}, 'docIndex': [...], 'final': {...}, 'topicIndex': [...], 'topicMapping': [...]}, 'topicIndex': ['Topic 1', 'Topic 2', 'Topic 3', 'Topic 4', 'Topic 5', 'Topic 6', 'Topic 7', 'Topic 8', 'Topic 9', 'Topic 10'], 'topicMapping': [0, 1, 2, 3, 4, 5, 6, 7, 8, 9]}, 'topicIndex': ['Topic 1', 'Topic 2', 'Topic 3', 'Topic 4', 'Topic 5', 'Topic 6', 'Topic 7', 'Topic 8', 'Topic 9', 'Topic 10'], 'topicMapping': [0, 1, 2, 3, 4, 5, 6, 7, 8, 9]}, 'topicIndex': ['Topic 1', 'Topic 2', 'Topic 3', 'Topic 4', 'Topic 5', 'Topic 6', 'Topic 7', 'Topic 8', 'Topic 9', 'Topic 10'], 'topicMapping': [0, 1, 2, 3, 4, 5, 6, 7, 8, 9]}, 'topicIndex': ['Topic 1', 'Topic 2', 'Topic 3', 'Topic 4', 'Topic 5', 'Topic 6', 'Topic 7', 'Topic 8', 'Topic 9', 'Topic 10'], 'topicMapping': [0, 1, 2, 3, 4, 5, 6, 7, 8, 9]}, 'topicIndex': ['Topic 1', 'Topic 2', 'Topic 3', 'Topic 4', 'Topic 5', 'Topic 6', 'Topic 7', 'Topic 8', 'Topic 9', 'Topic 10'], 'topicMapping': [0, 1, 2, 3, 4, 5, 6, 7, 8, 9]}, _current_indent_level=1)"
p243
sg85
g226
sasS'pyver'
p244
S'Python 2.7.6: /usr/bin/python (prefix: /System/Library/Frameworks/Python.framework/Versions/2.7)'
p245
sS'session'
p246
g57
(S's\x1a\x00\x00\x00<div><table></table></div>'
tRp247
sS'etype'
p248
S"<type 'exceptions.ValueError'>"
p249
sS'date'
p250
S'Mon Jul 13 17:33:01 2015'
p251
sS'response'
p252
g57
(S's\xea\x15\x00\x00<div><table><tr><td style="font-weight:bold;vertical-align:top;">body</td><td style="vertical-align:top;">:</td><td><div>&lt;cStringIO.StringO object at 0x1158b80a0&gt;</div></td></tr><tr><td style="font-weight:bold;vertical-align:top;">cookies</td><td style="vertical-align:top;">:</td><td><div><table><tr><td style="font-weight:bold;vertical-align:top;">session_id_lda_x40_mallet</td><td style="vertical-align:top;">:</td><td><div>127.0.0.1-afd468ff-074a-4757-a84f-068d293cfdba<table><tr><td style="font-weight:bold;vertical-align:top;">comment</td><td style="vertical-align:top;">:</td><td><div></div></td></tr><tr><td style="font-weight:bold;vertical-align:top;">domain</td><td style="vertical-align:top;">:</td><td><div></div></td></tr><tr><td style="font-weight:bold;vertical-align:top;">expires</td><td style="vertical-align:top;">:</td><td><div></div></td></tr><tr><td style="font-weight:bold;vertical-align:top;">httponly</td><td style="vertical-align:top;">:</td><td><div></div></td></tr><tr><td style="font-weight:bold;vertical-align:top;">max-age</td><td style="vertical-align:top;">:</td><td><div></div></td></tr><tr><td style="font-weight:bold;vertical-align:top;">path</td><td style="vertical-align:top;">:</td><td><div>/</div></td></tr><tr><td style="font-weight:bold;vertical-align:top;">secure</td><td style="vertical-align:top;">:</td><td><div></div></td></tr><tr><td style="font-weight:bold;vertical-align:top;">version</td><td style="vertical-align:top;">:</td><td><div></div></td></tr></table></div></td></tr></table></div></td></tr><tr><td style="font-weight:bold;vertical-align:top;">delimiters</td><td style="vertical-align:top;">:</td><td><div><table><tr><td><div>{{</div></td></tr><tr><td><div>}}</div></td></tr></table></div></td></tr><tr><td style="font-weight:bold;vertical-align:top;">files</td><td style="vertical-align:top;">:</td><td><div><table></table></div></td></tr><tr><td style="font-weight:bold;vertical-align:top;">flash</td><td style="vertical-align:top;">:</td><td><div></div></td></tr><tr><td style="font-weight:bold;vertical-align:top;">generic_patterns</td><td style="vertical-align:top;">:</td><td><div><table></table></div></td></tr><tr><td style="font-weight:bold;vertical-align:top;">headers</td><td style="vertical-align:top;">:</td><td><div><table><tr><td style="font-weight:bold;vertical-align:top;">X-Powered-By</td><td style="vertical-align:top;">:</td><td><div>web2py</div></td></tr></table></div></td></tr><tr><td style="font-weight:bold;vertical-align:top;">menu</td><td style="vertical-align:top;">:</td><td><div><table></table></div></td></tr><tr><td style="font-weight:bold;vertical-align:top;">meta</td><td style="vertical-align:top;">:</td><td><div><table></table></div></td></tr><tr><td style="font-weight:bold;vertical-align:top;">models_to_run</td><td style="vertical-align:top;">:</td><td><div><table><tr><td><div>^\\w+\\.py$</div></td></tr><tr><td><div>^DocTopicMatrix/\\w+\\.py$</div></td></tr><tr><td><div>^DocTopicMatrix/TermFrequencyModel/\\w+\\.py$</div></td></tr></table></div></td></tr><tr><td style="font-weight:bold;vertical-align:top;">postprocessing</td><td style="vertical-align:top;">:</td><td><div><table></table></div></td></tr><tr><td style="font-weight:bold;vertical-align:top;">session_client</td><td style="vertical-align:top;">:</td><td><div>127.0.0.1</div></td></tr><tr><td style="font-weight:bold;vertical-align:top;">session_cookie_compression_level</td><td style="vertical-align:top;">:</td><td><div>None</div></td></tr><tr><td style="font-weight:bold;vertical-align:top;">session_cookie_expires</td><td style="vertical-align:top;">:</td><td><div>None</div></td></tr><tr><td style="font-weight:bold;vertical-align:top;">session_cookie_key</td><td style="vertical-align:top;">:</td><td><div>None</div></td></tr><tr><td style="font-weight:bold;vertical-align:top;">session_data_name</td><td style="vertical-align:top;">:</td><td><div>session_data_lda_x40_mallet</div></td></tr><tr><td style="font-weight:bold;vertical-align:top;">session_file</td><td style="vertical-align:top;">:</td><td><div>None</div></td></tr><tr><td style="font-weight:bold;vertical-align:top;">session_filename</td><td style="vertical-align:top;">:</td><td><div>/Users/ying-hsuanlin/termite-data-server/web2py/applications/lda_x40_mallet/sessions/127.0.0.1-afd468ff-074a-4757-a84f-068d293cfdba</div></td></tr><tr><td style="font-weight:bold;vertical-align:top;">session_hash</td><td style="vertical-align:top;">:</td><td><div>106f4c22ca06cc343e42b73a0d8492f6</div></td></tr><tr><td style="font-weight:bold;vertical-align:top;">session_id</td><td style="vertical-align:top;">:</td><td><div>127.0.0.1-afd468ff-074a-4757-a84f-068d293cfdba</div></td></tr><tr><td style="font-weight:bold;vertical-align:top;">session_id_name</td><td style="vertical-align:top;">:</td><td><div>session_id_lda_x40_mallet</div></td></tr><tr><td style="font-weight:bold;vertical-align:top;">session_masterapp</td><td style="vertical-align:top;">:</td><td><div>lda_x40_mallet</div></td></tr><tr><td style="font-weight:bold;vertical-align:top;">session_new</td><td style="vertical-align:top;">:</td><td><div>True</div></td></tr><tr><td style="font-weight:bold;vertical-align:top;">session_storage_type</td><td style="vertical-align:top;">:</td><td><div>file</div></td></tr><tr><td style="font-weight:bold;vertical-align:top;">status</td><td style="vertical-align:top;">:</td><td><div>200</div></td></tr><tr><td style="font-weight:bold;vertical-align:top;">view</td><td style="vertical-align:top;">:</td><td><div>DocTopicMatrix/TermFrequencyModel.html</div></td></tr></table></div>'
tRp253
sS'locals'
p254
(dp255
S'_encoder'
p256
S'<built-in function encode_basestring_ascii>'
p257
sS'_key_separator'
p258
S"': '"
p259
sS'int'
p260
S"<type 'int'>"
p261
sS'float'
p262
S"<type 'float'>"
p263
sS'_floatstr'
p264
S'<function floatstr>'
p265
sS'long'
p266
S"<type 'long'>"
p267
sS'isinstance'
p268
S'<built-in function isinstance>'
p269
sS'id'
p270
S'<built-in function id>'
p271
sS'_iterencode_list'
p272
S'<function _iterencode_list>'
p273
sS'basestring'
p274
S"<type 'basestring'>"
p275
sS'_item_separator'
p276
S"', '"
p277
sS'markers'
p278
S"{140377713159840: {'Doc->Topic': [0, 3, 0, 0, 3, 6, 0, 2, 0, 0, 1, 1, 3, 1, 2, 1, 1, 1, 1, 1, ...], 'Topic->Term': [u'cloud', u'erp', u'system', u'data', u'base', u'inform', u'judgment', u'process', u'univers', u'imag'], 'docFreqMap': {u'doc1': 1.0, u'doc10': 1.0, u'doc11': 0.9999999999999999, u'doc12': 1.0, u'doc13': 1.0, u'doc14': 1.0, u'doc15': 1.0, u'doc16': 1.0, u'doc17': 1.0, u'doc18': 1.0, ...}, 'docIndex': [u'doc26', u'doc28', u'doc29', u'doc35', u'doc36', u'doc38', u'doc1', u'doc2', u'doc4', u'doc5', u'doc9', u'doc10', u'doc12', u'doc13', u'doc14', u'doc15', u'doc16', u'doc17', u'doc18', u'doc19', ...], 'final': {'Doc->Topic': [0, 3, 0, 0, 3, 6, 0, 2, 0, 0, 1, 1, 3, 1, 2, 1, 1, 1, 1, 1, ...], 'Topic->Term': [u'cloud', u'erp', u'system', u'data', u'base', u'inform', u'judgment', u'process', u'univers', u'imag'], 'docFreqMap': {u'doc1': 1.0, u'doc10': 1.0, u'doc11': 0.9999999999999999, u'doc12': 1.0, u'doc13': 1.0, u'doc14': 1.0, u'doc15': 1.0, u'doc16': 1.0, u'doc17': 1.0, u'doc18': 1.0, ...}, 'docIndex': [u'doc26', u'doc28', u'doc29', u'doc35', u'doc36', u'doc38', u'doc1', u'doc2', u'doc4', u'doc5', u'doc9', u'doc10', u'doc12', u'doc13', u'doc14', u'doc15', u'doc16', u'doc17', u'doc18', u'doc19', ...], 'final': {'Doc->Topic': [0, 3, 0, 0, 3, 6, 0, 2, 0, 0, 1, 1, 3, 1, 2, 1, 1, 1, 1, 1, ...], 'Topic->Term': [u'cloud', u'erp', u'system', u'data', u'base', u'inform', u'judgment', u'process', u'univers', u'imag'], 'docFreqMap': {u'doc1': 1.0, u'doc10': 1.0, u'doc11': 0.9999999999999999, u'doc12': 1.0, u'doc13': 1.0, u'doc14': 1.0, u'doc15': 1.0, u'doc16': 1.0, u'doc17': 1.0, u'doc18': 1.0, ...}, 'docIndex': [u'doc26', u'doc28', u'doc29', u'doc35', u'doc36', u'doc38', u'doc1', u'doc2', u'doc4', u'doc5', u'doc9', u'doc10', u'doc12', u'doc13', u'doc14', u'doc15', u'doc16', u'doc17', u'doc18', u'doc19', ...], 'final': {'Doc->Topic': [0, 3, 0, 0, 3, 6, 0, 2, 0, 0, 1, 1, 3, 1, 2, 1, 1, 1, 1, 1, ...], 'Topic->Term': [u'cloud', u'erp', u'system', u'data', u'base', u'inform', u'judgment', u'process', u'univers', u'imag'], 'docFreqMap': {u'doc1': 1.0, u'doc10': 1.0, u'doc11': 0.9999999999999999, u'doc12': 1.0, u'doc13': 1.0, u'doc14': 1.0, u'doc15': 1.0, u'doc16': 1.0, u'doc17': 1.0, u'doc18': 1.0, ...}, 'docIndex': [u'doc26', u'doc28', u'doc29', u'doc35', u'doc36', u'doc38', u'doc1', u'doc2', u'doc4', u'doc5', u'doc9', u'doc10', u'doc12', u'doc13', u'doc14', u'doc15', u'doc16', u'doc17', u'doc18', u'doc19', ...], 'final': {'Doc->Topic': [...], 'Topic->Term': [...], 'docFreqMap': {...}, 'docIndex': [...], 'final': {...}, 'topicIndex': [...], 'topicMapping': [...]}, 'topicIndex': ['Topic 1', 'Topic 2', 'Topic 3', 'Topic 4', 'Topic 5', 'Topic 6', 'Topic 7', 'Topic 8', 'Topic 9', 'Topic 10'], 'topicMapping': [0, 1, 2, 3, 4, 5, 6, 7, 8, 9]}, 'topicIndex': ['Topic 1', 'Topic 2', 'Topic 3', 'Topic 4', 'Topic 5', 'Topic 6', 'Topic 7', 'Topic 8', 'Topic 9', 'Topic 10'], 'topicMapping': [0, 1, 2, 3, 4, 5, 6, 7, 8, 9]}, 'topicIndex': ['Topic 1', 'Topic 2', 'Topic 3', 'Topic 4', 'Topic 5', 'Topic 6', 'Topic 7', 'Topic 8', 'Topic 9', 'Topic 10'], 'topicMapping': [0, 1, 2, 3, 4, 5, 6, 7, 8, 9]}, 'topicIndex': ['Topic 1', 'Topic 2', 'Topic 3', 'Topic 4', 'Topic 5', 'Topic 6', 'Topic 7', 'Topic 8', 'Topic 9', 'Topic 10'], 'topicMapping': [0, 1, 2, 3, 4, 5, 6, 7, 8, 9]}}"
p279
sS'_sort_keys'
p280
g134
sS'dict'
p281
S"<type 'dict'>"
p282
sS'markerid'
p283
S'140377713159840'
p284
sg226
S'<function _iterencode_dict>'
p285
sS'_skipkeys'
p286
S'False'
p287
sS'ValueError'
p288
S"<type 'exceptions.ValueError'>"
p289
sS'tuple'
p290
S"<type 'tuple'>"
p291
sS'_indent'
p292
S'2'
sS'dct'
p293
S"{'Doc->Topic': [0, 3, 0, 0, 3, 6, 0, 2, 0, 0, 1, 1, 3, 1, 2, 1, 1, 1, 1, 1, ...], 'Topic->Term': [u'cloud', u'erp', u'system', u'data', u'base', u'inform', u'judgment', u'process', u'univers', u'imag'], 'docFreqMap': {u'doc1': 1.0, u'doc10': 1.0, u'doc11': 0.9999999999999999, u'doc12': 1.0, u'doc13': 1.0, u'doc14': 1.0, u'doc15': 1.0, u'doc16': 1.0, u'doc17': 1.0, u'doc18': 1.0, ...}, 'docIndex': [u'doc26', u'doc28', u'doc29', u'doc35', u'doc36', u'doc38', u'doc1', u'doc2', u'doc4', u'doc5', u'doc9', u'doc10', u'doc12', u'doc13', u'doc14', u'doc15', u'doc16', u'doc17', u'doc18', u'doc19', ...], 'final': {'Doc->Topic': [0, 3, 0, 0, 3, 6, 0, 2, 0, 0, 1, 1, 3, 1, 2, 1, 1, 1, 1, 1, ...], 'Topic->Term': [u'cloud', u'erp', u'system', u'data', u'base', u'inform', u'judgment', u'process', u'univers', u'imag'], 'docFreqMap': {u'doc1': 1.0, u'doc10': 1.0, u'doc11': 0.9999999999999999, u'doc12': 1.0, u'doc13': 1.0, u'doc14': 1.0, u'doc15': 1.0, u'doc16': 1.0, u'doc17': 1.0, u'doc18': 1.0, ...}, 'docIndex': [u'doc26', u'doc28', u'doc29', u'doc35', u'doc36', u'doc38', u'doc1', u'doc2', u'doc4', u'doc5', u'doc9', u'doc10', u'doc12', u'doc13', u'doc14', u'doc15', u'doc16', u'doc17', u'doc18', u'doc19', ...], 'final': {'Doc->Topic': [0, 3, 0, 0, 3, 6, 0, 2, 0, 0, 1, 1, 3, 1, 2, 1, 1, 1, 1, 1, ...], 'Topic->Term': [u'cloud', u'erp', u'system', u'data', u'base', u'inform', u'judgment', u'process', u'univers', u'imag'], 'docFreqMap': {u'doc1': 1.0, u'doc10': 1.0, u'doc11': 0.9999999999999999, u'doc12': 1.0, u'doc13': 1.0, u'doc14': 1.0, u'doc15': 1.0, u'doc16': 1.0, u'doc17': 1.0, u'doc18': 1.0, ...}, 'docIndex': [u'doc26', u'doc28', u'doc29', u'doc35', u'doc36', u'doc38', u'doc1', u'doc2', u'doc4', u'doc5', u'doc9', u'doc10', u'doc12', u'doc13', u'doc14', u'doc15', u'doc16', u'doc17', u'doc18', u'doc19', ...], 'final': {'Doc->Topic': [0, 3, 0, 0, 3, 6, 0, 2, 0, 0, 1, 1, 3, 1, 2, 1, 1, 1, 1, 1, ...], 'Topic->Term': [u'cloud', u'erp', u'system', u'data', u'base', u'inform', u'judgment', u'process', u'univers', u'imag'], 'docFreqMap': {u'doc1': 1.0, u'doc10': 1.0, u'doc11': 0.9999999999999999, u'doc12': 1.0, u'doc13': 1.0, u'doc14': 1.0, u'doc15': 1.0, u'doc16': 1.0, u'doc17': 1.0, u'doc18': 1.0, ...}, 'docIndex': [u'doc26', u'doc28', u'doc29', u'doc35', u'doc36', u'doc38', u'doc1', u'doc2', u'doc4', u'doc5', u'doc9', u'doc10', u'doc12', u'doc13', u'doc14', u'doc15', u'doc16', u'doc17', u'doc18', u'doc19', ...], 'final': {'Doc->Topic': [0, 3, 0, 0, 3, 6, 0, 2, 0, 0, 1, 1, 3, 1, 2, 1, 1, 1, 1, 1, ...], 'Topic->Term': [u'cloud', u'erp', u'system', u'data', u'base', u'inform', u'judgment', u'process', u'univers', u'imag'], 'docFreqMap': {u'doc1': 1.0, u'doc10': 1.0, u'doc11': 0.9999999999999999, u'doc12': 1.0, u'doc13': 1.0, u'doc14': 1.0, u'doc15': 1.0, u'doc16': 1.0, u'doc17': 1.0, u'doc18': 1.0, ...}, 'docIndex': [u'doc26', u'doc28', u'doc29', u'doc35', u'doc36', u'doc38', u'doc1', u'doc2', u'doc4', u'doc5', u'doc9', u'doc10', u'doc12', u'doc13', u'doc14', u'doc15', u'doc16', u'doc17', u'doc18', u'doc19', ...], 'final': {'Doc->Topic': [...], 'Topic->Term': [...], 'docFreqMap': {...}, 'docIndex': [...], 'final': {...}, 'topicIndex': [...], 'topicMapping': [...]}, 'topicIndex': ['Topic 1', 'Topic 2', 'Topic 3', 'Topic 4', 'Topic 5', 'Topic 6', 'Topic 7', 'Topic 8', 'Topic 9', 'Topic 10'], 'topicMapping': [0, 1, 2, 3, 4, 5, 6, 7, 8, 9]}, 'topicIndex': ['Topic 1', 'Topic 2', 'Topic 3', 'Topic 4', 'Topic 5', 'Topic 6', 'Topic 7', 'Topic 8', 'Topic 9', 'Topic 10'], 'topicMapping': [0, 1, 2, 3, 4, 5, 6, 7, 8, 9]}, 'topicIndex': ['Topic 1', 'Topic 2', 'Topic 3', 'Topic 4', 'Topic 5', 'Topic 6', 'Topic 7', 'Topic 8', 'Topic 9', 'Topic 10'], 'topicMapping': [0, 1, 2, 3, 4, 5, 6, 7, 8, 9]}, 'topicIndex': ['Topic 1', 'Topic 2', 'Topic 3', 'Topic 4', 'Topic 5', 'Topic 6', 'Topic 7', 'Topic 8', 'Topic 9', 'Topic 10'], 'topicMapping': [0, 1, 2, 3, 4, 5, 6, 7, 8, 9]}, 'topicIndex': ['Topic 1', 'Topic 2', 'Topic 3', 'Topic 4', 'Topic 5', 'Topic 6', 'Topic 7', 'Topic 8', 'Topic 9', 'Topic 10'], 'topicMapping': [0, 1, 2, 3, 4, 5, 6, 7, 8, 9]}"
p294
sS'list'
p295
S"<type 'list'>"
p296
sS'str'
p297
S"<type 'str'>"
p298
sS'_current_indent_level'
p299
S'1'
sg206
S'<function _iterencode>'
p300
sssS'traceback'
p301
S'Traceback (most recent call last):\n  File "/Users/ying-hsuanlin/termite-data-server/web2py/gluon/restricted.py", line 220, in restricted\n    exec ccode in environment\n  File "/Users/ying-hsuanlin/termite-data-server/web2py/applications/lda_x40_mallet/controllers/DocTopicMatrix.py", line 51, in <module>\n  File "/Users/ying-hsuanlin/termite-data-server/web2py/gluon/globals.py", line 385, in <lambda>\n    self._caller = lambda f: f()\n  File "/Users/ying-hsuanlin/termite-data-server/web2py/applications/lda_x40_mallet/controllers/DocTopicMatrix.py", line 47, in TermFrequencyModel\n    dataStr = json.dumps(data, encoding=\'utf-8\', indent=2, sort_keys=True)\n  File "/System/Library/Frameworks/Python.framework/Versions/2.7/lib/python2.7/json/__init__.py", line 250, in dumps\n    sort_keys=sort_keys, **kw).encode(obj)\n  File "/System/Library/Frameworks/Python.framework/Versions/2.7/lib/python2.7/json/encoder.py", line 209, in encode\n    chunks = list(chunks)\n  File "/System/Library/Frameworks/Python.framework/Versions/2.7/lib/python2.7/json/encoder.py", line 434, in _iterencode\n    for chunk in _iterencode_dict(o, _current_indent_level):\n  File "/System/Library/Frameworks/Python.framework/Versions/2.7/lib/python2.7/json/encoder.py", line 408, in _iterencode_dict\n    for chunk in chunks:\n  File "/System/Library/Frameworks/Python.framework/Versions/2.7/lib/python2.7/json/encoder.py", line 348, in _iterencode_dict\n    raise ValueError("Circular reference detected")\nValueError: Circular reference detected\n'
p302
s.