(dp1
S'output'
p2
S"<type 'exceptions.KeyError'> 'REF_DOC'"
p3
sS'layer'
p4
S'/Users/ying-hsuanlin/termite-data-server/web2py/applications/lda_x40_mallet/controllers/DocTopicMatrix.py'
p5
sS'code'
p6
S"#!/usr/bin/env python\n# -*- coding: utf-8 -*-\n\nimport json\nfrom db.BOW_DB import BOW_DB\nfrom db.LDA_DB import LDA_DB\nfrom vis.DocTopicMatrix import DocTopicMatrix\n\ndef index():\n\twith BOW_DB() as bow_db:\n\t\twith LDA_DB() as lda_db:\n\t\t\thandler = DocTopicMatrix(request, response, bow_db, lda_db)\n\treturn handler.GenerateResponse()\n\ndef StateModel():\n\twith BOW_DB() as bow_db:\n\t\twith LDA_DB() as lda_db:\n\t\t\thandler = DocTopicMatrix(request, response, bow_db, lda_db)\n\t\t\tdata = handler.GetStateModel()\n\tdataStr = json.dumps(data, encoding='utf-8', indent=2, sort_keys=True)\n\tresponse.headers['Content-Type'] = 'application/json'\n\treturn dataStr\n\ndef SeriatedTermTopicProbabilityModel():\n\twith BOW_DB() as bow_db:\n\t\twith LDA_DB() as lda_db:\n\t\t\thandler = DocTopicMatrix(request, response, bow_db, lda_db)\n\t\t\tdata = handler.GetSeriatedTermTopicProbabilityModel()\n\tdataStr = json.dumps(data, encoding='utf-8', indent=2, sort_keys=True)\n\tresponse.headers['Content-Type'] = 'application/json'\n\treturn dataStr\n\ndef FilteredTermTopicProbabilityModel():\n\twith BOW_DB() as bow_db:\n\t\twith LDA_DB() as lda_db:\n\t\t\thandler = DocTopicMatrix(request, response, bow_db, lda_db)\n\tdata = handler.GetFilteredTermTopicProbabilityModel()\n\tdataStr = json.dumps(data, encoding='utf-8', indent=2, sort_keys=True)\n\tresponse.headers['Content-Type'] = 'application/json'\n\treturn dataStr\n\ndef TermFrequencyModel():\n\twith BOW_DB() as bow_db:\n\t\twith LDA_DB() as lda_db:\n\t\t\thandler = DocTopicMatrix(request, response, bow_db, lda_db)\n\t\t\tdata = handler.GetTermFrequencyModel()\n\tdataStr = json.dumps(data, encoding='utf-8', indent=2, sort_keys=True)\n\tresponse.headers['Content-Type'] = 'application/json'\n\treturn dataStr\n\nresponse._vars=response._caller(TermFrequencyModel)\n"
p7
sS'snapshot'
p8
(dp9
sS'traceback'
p10
S'Traceback (most recent call last):\n  File "/Users/ying-hsuanlin/termite-data-server/web2py/gluon/restricted.py", line 220, in restricted\n    exec ccode in environment\n  File "/Users/ying-hsuanlin/termite-data-server/web2py/applications/lda_x40_mallet/controllers/DocTopicMatrix.py", line 51, in <module>\n  File "/Users/ying-hsuanlin/termite-data-server/web2py/gluon/globals.py", line 385, in <lambda>\n    self._caller = lambda f: f()\n  File "/Users/ying-hsuanlin/termite-data-server/web2py/applications/lda_x40_mallet/controllers/DocTopicMatrix.py", line 46, in TermFrequencyModel\n    data = handler.GetTermFrequencyModel()\n  File "applications/lda_x40_mallet/modules/vis/DocTopicMatrix.py", line 170, in GetTermFrequencyModel\n    ORDER BY t.rank""".format(TABLE = table, REF = ref, UB = termLimit)\nKeyError: \'REF_DOC\'\n'
p11
s.