(dp1
S'output'
p2
S"<type 'exceptions.NameError'> name 'CellLimit' is not defined"
p3
sS'layer'
p4
S'/Users/ying-hsuanlin/termite-data-server/web2py/applications/lda_x40_mallet/views/DocTopicMatrix/index.html'
p5
sS'code'
p6
S'response.write(\'<!DOCTYPE HTML PUBLIC "-//W3C//DTD HTML 4.01//EN" "http://www.w3.org/TR/html4/strict.dtd">\\n<html lang="en">\\n<head>\\n\\t<title>Termite Data Server | \', escape=False)\nresponse.write(configs[\'dataset\'])\nresponse.write(\'</title>\\n\\t<meta http-equiv="Content-Type" content="text/html; charset=UTF-8" />\\n\\t<link rel="stylesheet" href="\', escape=False)\nresponse.write(URL(\'static\',\'css/font-awesome.min.css\'))\nresponse.write(\'" />\\n\\t<link rel="stylesheet" href="\', escape=False)\nresponse.write(URL(\'static\',\'css/common.css\'))\nresponse.write(\'" />\\n\', escape=False)\nimport math\nimport urllib\nimport json\ndef MakeParamTextArea(name, value, width = 200, height = 50):\n    HTML = """<textarea name="{NAME}" onchange="updateParamTextInput(\'{NAME}\',this)" style="width: {WIDTH}px; height: {HEIGHT}px; vertical-align: -{THIRD_HEIGHT}px; margin-bottom: 10px">{VALUE}</textarea>"""\n    html = HTML.format(NAME = name, VALUE=value, WIDTH=width, HEIGHT=height, THIRD_HEIGHT=height/2-10)\n    response.write(html, escape=False)\n    pass\ndef MakeParamTextInput(name, value, width = 200):\n    HTML = """<input type="text" name="{NAME}" value="{VALUE}" onkeyup="updateParamTextInput(\'{NAME}\',this)" style="width: {WIDTH}px; vertical-align: -4px"/>"""\n    html = HTML.format(NAME = name, VALUE=value, WIDTH=width)\n    response.write(html, escape=False)\n    pass\ndef MakeParamRange(name, value, count, width = 200):\n    HTML = """\\n\t\t<input type="range" name="{NAME}" value="{VALUE_NUM}" min="-1" max="{COUNT}" onchange="updateParamRange(\'{NAME}\',this)" style="width: {WIDTH}px; vertical-align: -4px"/>\\n\t\t<span class="{NAME}" style="font-weight: bold; color: #000">{VALUE_STR}</span>\\n\t\t"""\n    value_num = int(math.sqrt(value) * 1000) if value is not None else -1\n    value_str = value if value is not None else "&mdash;"\n    count_num = int(math.sqrt(count) * 1000)\n    html = HTML.format(NAME = name, VALUE_NUM=value_num, VALUE_STR=value_str, COUNT=count_num, WIDTH=width)\n    response.write(html, escape=False)\n    pass\ndef MakeParamSelect(name, value, options, width = 200):\n    HEAD = """<select name={NAME} onchange="updateParamSelect(\'{NAME}\',this)" style="width: {WIDTH}px">"""\n    OPTION = """<option value="{OPT_VALUE}" {OPT_SELECTED}>{OPT_NAME}</option>"""\n    FOOT = """</select>"""\n    s = []\n    s.append( HEAD.format(NAME=name, WIDTH=width) )\n    for option in options:\n        opt_name = option[\'name\']\n        opt_value = option[\'value\']\n        opt_selected = \'selected="selected"\' if opt_value == value else \'\'\n        s.append( OPTION.format(OPT_NAME=opt_name, OPT_VALUE=opt_value, OPT_SELECTED=opt_selected) )\n        pass\n    s.append( FOOT )\n    html = \'\\n\'.join(s)\n    response.write(html, escape=False)\n    pass\ndef MakeParamFormat(json_only=False):\n    if json_only:\n        HTML = """\\n\t\t\t<select name={NAME} onchange="updateParamFormat(this)" style="width: 200px">\\n\t\t\t\t<option value="NONE">&mdash;</option>\\n\t\t\t\t<option value="json">JSON Object</option>\\n\t\t\t</select>\\n\t\t\t"""\n    else:\n        HTML = """\\n\t\t\t<select name={NAME} onchange="updateParamFormat(this)" style="width: 200px">\\n\t\t\t\t<option value="NONE">&mdash;</option>\\n\t\t\t\t<option value="json">JSON Object</option>\\n\t\t\t\t<option value="csv">Comma-separated Spreadsheet</option>\\n\t\t\t\t<option value="tsv">Tab-delimited Spreadhseet</option>\\n\t\t\t</select>\\n\t\t\t"""\n        pass\n    html = HTML.format(NAME = \'format\')\n    response.write(html, escape=False)\n    pass\ndef WriteURL( keysAndValues = {} ):\n    urlStr = configs[\'url\']\n    queryStr = urllib.urlencode({key : (value.encode(\'utf-8\') if isinstance(value,unicode) else value) for key, value in params.iteritems() if value is not None})\n    s = urlStr if len(queryStr) == 0 else \'{}?{}\'.format(urlStr, queryStr)\n    response.write(s, escape=False)\n    pass\ndef WriteJSON( data ):\n    response.write( json.dumps(data, encoding=\'utf-8\', indent=2, sort_keys=True), escape=False )\n    pass\nresponse.write(\'\\n\', escape=False)\nresponse.write(\'\\n\\t<script type="text/javascript">\\n\', escape=False)\nresponse.write(\'var configs = \', escape=False)\nWriteJSON(configs)\nresponse.write(\';\\nvar params = \', escape=False)\nWriteJSON({key : value for key, value in params.iteritems() if value is not None})\nresponse.write(\';\\n\\nvar updateParamTextArea = function(name, srcElement) {\\n\\tvar value = srcElement.value;\\n\\tchangeParam(name, value);\\n};\\n\\nvar updateParamTextInput = function(name, srcElement) {\\n\\tvar value = srcElement.value;\\n\\tchangeParam(name, value);\\n};\\n\\nvar updateParamRange = function(name, srcElement) {\\n\\tvar valueSqrt = parseInt(srcElement.value, 10);\\n\\tvar valueNum = valueSqrt === -1 ? -1 : parseInt(valueSqrt*valueSqrt/1000/1000);\\n\\tvar value = (valueNum === -1 ? null : valueNum);\\n\\tvar valueStr = (valueNum === -1 ? "&mdash;" : valueNum);\\n\\td3.select("."+name).html(valueStr);\\n\\tchangeParam(name, value);\\n};\\n\\nvar updateParamSelect = function(name, srcElement) {\\n\\tvar valueRaw = srcElement.value;\\n\\tvar value = valueRaw === "NONE" ? null : valueRaw;\\n\\tchangeParam(name, value);\\n};\\n\\nvar updateParamFormat = function(srcElement) {\\n\\tvar valueRaw = srcElement.value;\\n\\tvar value = valueRaw === "NONE" ? null : valueRaw;\\n\\tchangeParam(\\\'format\\\', value);\\n};\\n\', escape=False)\nresponse.write(\'\\n\\t</script>\\n\\t<script type="text/javascript" src="\', escape=False)\nresponse.write(URL(\'static\',\'js/jquery.min.js\'))\nresponse.write(\'"></script>\\n\\t<script type="text/javascript" src="\', escape=False)\nresponse.write(URL(\'static\',\'js/underscore.min.js\'))\nresponse.write(\'"></script>\\n\\t<script type="text/javascript" src="\', escape=False)\nresponse.write(URL(\'static\',\'js/backbone.min.js\'))\nresponse.write(\'"></script>\\n\\t<script type="text/javascript" src="\', escape=False)\nresponse.write(URL(\'static\',\'js/d3.min.js\'))\nresponse.write(\'"></script>\\n\\t<script type="text/javascript" src="\', escape=False)\nresponse.write(URL(\'static\',\'js/vega.min.js\'))\nresponse.write(\'"></script>\\n\\t<script type="text/javascript" src="\', escape=False)\nresponse.write(URL(\'static\',\'js/common.js\'))\nresponse.write(\'"></script>\\n</head>\\n<body>\\n\\t\', escape=False)\nresponse.write(\'\\n\\n<div class="head">\\n\\t<div class="title">Docite Data Server</div>\\n\\t\', escape=False)\nresponse.write(\'<div class="sep">http://</div>\\n<div class="subtitle">\\n\\t<a href="http://\', escape=False)\nresponse.write(configs[\'server\'])\nresponse.write(\'">\', escape=False)\nresponse.write(configs[\'server\'])\nresponse.write(\'</a>\\n</div>\\n\', escape=False)\nresponse.write(\'\\n\\t\', escape=False)\nresponse.write(\'<div class="sep">/</div>\\n<div class="subtitle">\\n\\t<select onchange="onSelectDataset(this)">\\n\\t\\t<option value="NONE" \', escape=False)\nif configs[\'dataset\'] == \'init\':\n    response.write(\'selected="selected"\', escape=False)\n    pass\nresponse.write(\'>&mdash; Available Datasets &mdash;</option>\\n\\t\\t\', escape=False)\nfor value in menus[\'datasets\']:\n    response.write(\'\\n\\t\\t\\t<option value="\', escape=False)\n    response.write(value)\n    response.write(\'" \', escape=False)\n    if configs[\'dataset\'] == value:\n        response.write(\'selected="selected"\', escape=False)\n        pass\n    response.write(\'>\', escape=False)\n    response.write(value)\n    response.write(\'</option>\\n\\t\\t\', escape=False)\n    pass\nresponse.write(\'\\n\\t\\t<option value="NONE">&nbsp;</option>\\n\\t\\t<option value="NONE">&mdash; Data Manager &mdash;</option>\\n\\t\\t\', escape=False)\nfor d in menus[\'operations\']:\n    response.write(\'\\n\\t\\t\\t<option value="\', escape=False)\n    response.write(d[\'value\'])\n    response.write(\'" \', escape=False)\n    if configs[\'dataset\'] == d[\'value\']:\n        response.write(\'selected="selected"\', escape=False)\n        pass\n    response.write(\'>\', escape=False)\n    response.write(d[\'name\'])\n    response.write(\'</option>\\n\\t\\t\', escape=False)\n    pass\nresponse.write(\'\\n\\t</select>\\n</div>\\n\', escape=False)\nresponse.write(\'\\n\\t\', escape=False)\nresponse.write(\'<div class="sep">/</div>\\n<div class="subtitle">\\n\\t<select onchange="onSelectModel(this)">\\n\\t\\t<option value="NONE" \', escape=False)\nif configs[\'model\'] == \'default\':\n    response.write(\'selected="selected"\', escape=False)\n    pass\nresponse.write(\'>&mdash; Visualizations &mdash;</option>\\n\\t\\t\', escape=False)\nfor d in menus[\'visualizations\']:\n    response.write(\'\\n\\t\\t\\t<option value="\', escape=False)\n    response.write(d[\'value\'])\n    response.write(\'" \', escape=False)\n    if configs[\'model\'] == d[\'value\']:\n        response.write(\'selected="selected"\', escape=False)\n        pass\n    response.write(\'>\', escape=False)\n    response.write(d[\'name\'])\n    response.write(\'</option>\\n\\t\\t\', escape=False)\n    pass\nresponse.write(\'\\n\\t\\t<option value="NONE">&nbsp;</option>\\n\\t\\t<option value="NONE">&mdash; Models &mdash;</option>\\n\\t\\t\', escape=False)\nfor d in menus[\'models\']:\n    response.write(\'\\n\\t\\t\\t<option value="\', escape=False)\n    response.write(d[\'value\'])\n    response.write(\'" \', escape=False)\n    if configs[\'model\'] == d[\'value\']:\n        response.write(\'selected="selected"\', escape=False)\n        pass\n    response.write(\'>\', escape=False)\n    response.write(d[\'name\'])\n    response.write(\'</option>\\n\\t\\t\', escape=False)\n    pass\nresponse.write(\'\\n\\t</select>\\n</div>\\n\', escape=False)\nresponse.write(\'\\n\\t\', escape=False)\nresponse.write(\'<div class="sep">/</div>\\n<div class="subtitle">\\n\\t<select onchange="onSelectAttribute(this)">\\n\\t\\t<option value="NONE">&mdash; API Methods &mdash;</option>\\n\\t\\t\', escape=False)\nfor value in menus[\'attributes\']:\n    response.write(\'\\n\\t\\t\\t<option value="\', escape=False)\n    response.write(value)\n    response.write(\'" \', escape=False)\n    if configs[\'attribute\'] == value:\n        response.write(\'selected="selected"\', escape=False)\n        pass\n    response.write(\'>\', escape=False)\n    response.write(value)\n    response.write(\'</option>\\n\\t\\t\', escape=False)\n    pass\nresponse.write(\'\\n\\t</select>\\n</div>\\n\', escape=False)\nresponse.write(\'\\n</div>\\n\\n<div class="body">\\n\\t<div class="heading">Method: <b>lda/DocTopicMatrix</b></div>\\n\\t<div class="info">\\n\\t\\tGet a sparse matrix representing the document topical mixtures generated by the LDA model.\\n\\t</div>\\n\\t\', escape=False)\nresponse.write(\'<div class="heading">URL for making an API request</div>\\n<div class="request"><a class="RequestURL" href="\', escape=False)\nWriteURL()\nresponse.write(\'">\', escape=False)\nWriteURL()\nresponse.write(\'</a></div>\\n\', escape=False)\nresponse.write(\'\\n\\t<div class="params">\\n\\t\\t<p>\\n\\t\\t\\t<span class="key">cellLimit = </span>\\n\\t\\t\\t<span class="value">\', escape=False)\nMakeParamRange(\'cellLimit\', CellLimit, CellCount)\nresponse.write(\'</span>\\n\\t\\t</p>\\n\\t\\t<p>\\n\\t\\t\\t<span class="key">docLimit = </span>\\n\\t\\t\\t<span class="value">\', escape=False)\nMakeParamRange(\'docLimit\', DocLimit, DocCount)\nresponse.write(\'</span>\\n\\t\\t</p>\\n\\t\\t<p>\\n\\t\\t\\t<span class="key">docOffset = </span>\\n\\t\\t\\t<span class="value">\', escape=False)\nMakeParamRange(\'docOffset\', DocOffset, DocCount)\nresponse.write(\'</span>\\n\\t\\t</p>\\n\\t\\t<p>\\n\\t\\t\\t<span class="key">format = </span>\\n\\t\\t\\t<span class="value">\', escape=False)\nMakeParamFormat()\nresponse.write(\'</span>\\n\\t\\t</p>\\n\\t</div>\\n\\t\', escape=False)\nresponse.write(\'<div class="heading">API response from the data server</div>\\n<div class="response">\', escape=False)\nresponse.write(content)\nresponse.write(\'</div>\\n\', escape=False)\nresponse.write(\'\\n</div>\\n\', escape=False)\nresponse.write(\'\\n</body>\\n</html>\\n\', escape=False)'
p7
sS'snapshot'
p8
(dp9
S'exception'
p10
(dp11
S'__hash__'
p12
S"<method-wrapper '__hash__' of exceptions.NameError object>"
p13
sS'__setattr__'
p14
S"<method-wrapper '__setattr__' of exceptions.NameError object>"
p15
sS'__reduce_ex__'
p16
S'<built-in method __reduce_ex__ of exceptions.NameError object>'
p17
sS'__getslice__'
p18
S"<method-wrapper '__getslice__' of exceptions.NameError object>"
p19
sS'__getitem__'
p20
S"<method-wrapper '__getitem__' of exceptions.NameError object>"
p21
sS'__setstate__'
p22
S'<built-in method __setstate__ of exceptions.NameError object>'
p23
sS'args'
p24
S'("name \'CellLimit\' is not defined",)'
p25
sS'__reduce__'
p26
S'<built-in method __reduce__ of exceptions.NameError object>'
p27
sS'__str__'
p28
S"<method-wrapper '__str__' of exceptions.NameError object>"
p29
sS'__format__'
p30
S'<built-in method __format__ of exceptions.NameError object>'
p31
sS'__getattribute__'
p32
S"<method-wrapper '__getattribute__' of exceptions.NameError object>"
p33
sS'__class__'
p34
S"<type 'exceptions.NameError'>"
p35
sS'__unicode__'
p36
S'<built-in method __unicode__ of exceptions.NameError object>'
p37
sS'__delattr__'
p38
S"<method-wrapper '__delattr__' of exceptions.NameError object>"
p39
sS'__subclasshook__'
p40
S'<built-in method __subclasshook__ of type object>'
p41
sS'__repr__'
p42
S"<method-wrapper '__repr__' of exceptions.NameError object>"
p43
sS'__dict__'
p44
S'{}'
p45
sS'__sizeof__'
p46
S'<built-in method __sizeof__ of exceptions.NameError object>'
p47
sS'__doc__'
p48
S"'Name not found globally.'"
p49
sS'__init__'
p50
S"<method-wrapper '__init__' of exceptions.NameError object>"
p51
sS'__new__'
p52
S'<built-in method __new__ of type object>'
p53
ssS'evalue'
p54
S"name 'CellLimit' is not defined"
p55
sS'request'
p56
cgluon.html
XML_unpickle
p57
(S's\x0fd\x00\x00<div><table><tr><td style="font-weight:bold;vertical-align:top;">ajax</td><td style="vertical-align:top;">:</td><td><div>False</div></td></tr><tr><td style="font-weight:bold;vertical-align:top;">application</td><td style="vertical-align:top;">:</td><td><div>lda_x40_mallet</div></td></tr><tr><td style="font-weight:bold;vertical-align:top;">args</td><td style="vertical-align:top;">:</td><td><div><table></table></div></td></tr><tr><td style="font-weight:bold;vertical-align:top;">cid</td><td style="vertical-align:top;">:</td><td><div>None</div></td></tr><tr><td style="font-weight:bold;vertical-align:top;">client</td><td style="vertical-align:top;">:</td><td><div>127.0.0.1</div></td></tr><tr><td style="font-weight:bold;vertical-align:top;">controller</td><td style="vertical-align:top;">:</td><td><div>DocTopicMatrix</div></td></tr><tr><td style="font-weight:bold;vertical-align:top;">cookies</td><td style="vertical-align:top;">:</td><td><div><table><tr><td style="font-weight:bold;vertical-align:top;">session_id_admin</td><td style="vertical-align:top;">:</td><td><div>127.0.0.1-56e09121-b93f-45e3-b3f5-8010c12cdced<table><tr><td style="font-weight:bold;vertical-align:top;">comment</td><td style="vertical-align:top;">:</td><td><div></div></td></tr><tr><td style="font-weight:bold;vertical-align:top;">domain</td><td style="vertical-align:top;">:</td><td><div></div></td></tr><tr><td style="font-weight:bold;vertical-align:top;">expires</td><td style="vertical-align:top;">:</td><td><div></div></td></tr><tr><td style="font-weight:bold;vertical-align:top;">httponly</td><td style="vertical-align:top;">:</td><td><div></div></td></tr><tr><td style="font-weight:bold;vertical-align:top;">max-age</td><td style="vertical-align:top;">:</td><td><div></div></td></tr><tr><td style="font-weight:bold;vertical-align:top;">path</td><td style="vertical-align:top;">:</td><td><div></div></td></tr><tr><td style="font-weight:bold;vertical-align:top;">secure</td><td style="vertical-align:top;">:</td><td><div></div></td></tr><tr><td style="font-weight:bold;vertical-align:top;">version</td><td style="vertical-align:top;">:</td><td><div></div></td></tr></table></div></td></tr><tr><td style="font-weight:bold;vertical-align:top;">session_id_infovis_mallet</td><td style="vertical-align:top;">:</td><td><div>127.0.0.1-b25c2682-3d79-4714-b612-c280a1c28084<table><tr><td style="font-weight:bold;vertical-align:top;">comment</td><td style="vertical-align:top;">:</td><td><div></div></td></tr><tr><td style="font-weight:bold;vertical-align:top;">domain</td><td style="vertical-align:top;">:</td><td><div></div></td></tr><tr><td style="font-weight:bold;vertical-align:top;">expires</td><td style="vertical-align:top;">:</td><td><div></div></td></tr><tr><td style="font-weight:bold;vertical-align:top;">httponly</td><td style="vertical-align:top;">:</td><td><div></div></td></tr><tr><td style="font-weight:bold;vertical-align:top;">max-age</td><td style="vertical-align:top;">:</td><td><div></div></td></tr><tr><td style="font-weight:bold;vertical-align:top;">path</td><td style="vertical-align:top;">:</td><td><div></div></td></tr><tr><td style="font-weight:bold;vertical-align:top;">secure</td><td style="vertical-align:top;">:</td><td><div></div></td></tr><tr><td style="font-weight:bold;vertical-align:top;">version</td><td style="vertical-align:top;">:</td><td><div></div></td></tr></table></div></td></tr><tr><td style="font-weight:bold;vertical-align:top;">session_id_init</td><td style="vertical-align:top;">:</td><td><div>127.0.0.1-2920d9a0-d14a-4611-b6b1-bbfd4ccd1510<table><tr><td style="font-weight:bold;vertical-align:top;">comment</td><td style="vertical-align:top;">:</td><td><div></div></td></tr><tr><td style="font-weight:bold;vertical-align:top;">domain</td><td style="vertical-align:top;">:</td><td><div></div></td></tr><tr><td style="font-weight:bold;vertical-align:top;">expires</td><td style="vertical-align:top;">:</td><td><div></div></td></tr><tr><td style="font-weight:bold;vertical-align:top;">httponly</td><td style="vertical-align:top;">:</td><td><div></div></td></tr><tr><td style="font-weight:bold;vertical-align:top;">max-age</td><td style="vertical-align:top;">:</td><td><div></div></td></tr><tr><td style="font-weight:bold;vertical-align:top;">path</td><td style="vertical-align:top;">:</td><td><div></div></td></tr><tr><td style="font-weight:bold;vertical-align:top;">secure</td><td style="vertical-align:top;">:</td><td><div></div></td></tr><tr><td style="font-weight:bold;vertical-align:top;">version</td><td style="vertical-align:top;">:</td><td><div></div></td></tr></table></div></td></tr><tr><td style="font-weight:bold;vertical-align:top;">session_id_lda_x40_mallet</td><td style="vertical-align:top;">:</td><td><div>127.0.0.1-6d9c20f9-b5d1-4546-9ba3-ecb875ce8e2a<table><tr><td style="font-weight:bold;vertical-align:top;">comment</td><td style="vertical-align:top;">:</td><td><div></div></td></tr><tr><td style="font-weight:bold;vertical-align:top;">domain</td><td style="vertical-align:top;">:</td><td><div></div></td></tr><tr><td style="font-weight:bold;vertical-align:top;">expires</td><td style="vertical-align:top;">:</td><td><div></div></td></tr><tr><td style="font-weight:bold;vertical-align:top;">httponly</td><td style="vertical-align:top;">:</td><td><div></div></td></tr><tr><td style="font-weight:bold;vertical-align:top;">max-age</td><td style="vertical-align:top;">:</td><td><div></div></td></tr><tr><td style="font-weight:bold;vertical-align:top;">path</td><td style="vertical-align:top;">:</td><td><div></div></td></tr><tr><td style="font-weight:bold;vertical-align:top;">secure</td><td style="vertical-align:top;">:</td><td><div></div></td></tr><tr><td style="font-weight:bold;vertical-align:top;">version</td><td style="vertical-align:top;">:</td><td><div></div></td></tr></table></div></td></tr></table></div></td></tr><tr><td style="font-weight:bold;vertical-align:top;">env</td><td style="vertical-align:top;">:</td><td><div><table><tr><td style="font-weight:bold;vertical-align:top;">HTTP_ACCEPT</td><td style="vertical-align:top;">:</td><td><div>text/html,application/xhtml+xml,application/xml;q=0.9,image/webp,*/*;q=0.8</div></td></tr><tr><td style="font-weight:bold;vertical-align:top;">HTTP_ACCEPT_ENCODING</td><td style="vertical-align:top;">:</td><td><div>gzip, deflate, sdch</div></td></tr><tr><td style="font-weight:bold;vertical-align:top;">HTTP_ACCEPT_LANGUAGE</td><td style="vertical-align:top;">:</td><td><div>zh-TW,zh;q=0.8,en-US;q=0.6,en;q=0.4,zh-CN;q=0.2,et;q=0.2</div></td></tr><tr><td style="font-weight:bold;vertical-align:top;">HTTP_CACHE_CONTROL</td><td style="vertical-align:top;">:</td><td><div>max-age=0</div></td></tr><tr><td style="font-weight:bold;vertical-align:top;">HTTP_CONNECTION</td><td style="vertical-align:top;">:</td><td><div>keep-alive</div></td></tr><tr><td style="font-weight:bold;vertical-align:top;">HTTP_COOKIE</td><td style="vertical-align:top;">:</td><td><div>session_id_init=127.0.0.1-2920d9a0-d14a-4611-b6b1-bbfd4ccd1510; session_id_infovis_mallet=127.0.0.1-b25c2682-3d79-4714-b612-c280a1c28084; session_id_lda_x40_mallet=127.0.0.1-6d9c20f9-b5d1-4546-9ba3-ecb875ce8e2a; session_id_admin=127.0.0.1-56e09121-b93f-45e3-b3f5-8010c12cdced</div></td></tr><tr><td style="font-weight:bold;vertical-align:top;">HTTP_HOST</td><td style="vertical-align:top;">:</td><td><div>127.0.0.1:8075</div></td></tr><tr><td style="font-weight:bold;vertical-align:top;">HTTP_REFERER</td><td style="vertical-align:top;">:</td><td><div>http://127.0.0.1:8075/lda_x40_mallet</div></td></tr><tr><td style="font-weight:bold;vertical-align:top;">HTTP_USER_AGENT</td><td style="vertical-align:top;">:</td><td><div>Mozilla/5.0 (Macintosh; Intel Mac OS X 10_10_2) AppleWebKit/537.36 (KHTML, like Gecko) Chrome/43.0.2357.81 Safari/537.36</div></td></tr><tr><td style="font-weight:bold;vertical-align:top;">PATH_INFO</td><td style="vertical-align:top;">:</td><td><div>/lda_x40_mallet/DocTopicMatrix</div></td></tr><tr><td style="font-weight:bold;vertical-align:top;">QUERY_STRING</td><td style="vertical-align:top;">:</td><td><div></div></td></tr><tr><td style="font-weight:bold;vertical-align:top;">REMOTE_ADDR</td><td style="vertical-align:top;">:</td><td><div>127.0.0.1</div></td></tr><tr><td style="font-weight:bold;vertical-align:top;">REMOTE_PORT</td><td style="vertical-align:top;">:</td><td><div>65086</div></td></tr><tr><td style="font-weight:bold;vertical-align:top;">REQUEST_METHOD</td><td style="vertical-align:top;">:</td><td><div>GET</div></td></tr><tr><td style="font-weight:bold;vertical-align:top;">SCRIPT_NAME</td><td style="vertical-align:top;">:</td><td><div></div></td></tr><tr><td style="font-weight:bold;vertical-align:top;">SERVER_NAME</td><td style="vertical-align:top;">:</td><td><div>Ying-Hsuan.local</div></td></tr><tr><td style="font-weight:bold;vertical-align:top;">SERVER_PORT</td><td style="vertical-align:top;">:</td><td><div>8075</div></td></tr><tr><td style="font-weight:bold;vertical-align:top;">SERVER_PROTOCOL</td><td style="vertical-align:top;">:</td><td><div>HTTP/1.1</div></td></tr><tr><td style="font-weight:bold;vertical-align:top;">SERVER_SOFTWARE</td><td style="vertical-align:top;">:</td><td><div>Rocket 1.2.6</div></td></tr><tr><td style="font-weight:bold;vertical-align:top;">app_folders</td><td style="vertical-align:top;">:</td><td><div>set([&#x27;/Users/ying-hsuanlin/termite-data-server/web2py/applications/infovis_mallet/&#x27;, &#x27;/Users/ying-hsuanlin/termite-data-server/web2py/applications/admin/&#x27;, &#x27;/Users/ying-hsuanlin/termite-data-server/web2py/applications/init/&#x27;, &#x27;/Users/ying-hsuanlin/termite-data-server/web2py/applications/lda_x40_mallet/&#x27;])</div></td></tr><tr><td style="font-weight:bold;vertical-align:top;">applications_parent</td><td style="vertical-align:top;">:</td><td><div>/Users/ying-hsuanlin/termite-data-server/web2py</div></td></tr><tr><td style="font-weight:bold;vertical-align:top;">cmd_args</td><td style="vertical-align:top;">:</td><td><div><table></table></div></td></tr><tr><td style="font-weight:bold;vertical-align:top;">cmd_options</td><td style="vertical-align:top;">:</td><td><div>&lt;Values at 0x10ee9bef0: {&#x27;verbose&#x27;: False, &#x27;ip&#x27;: &#x27;127.0.0.1&#x27;, &#x27;debuglevel&#x27;: 30, &#x27;with_scheduler&#x27;: False, &#x27;ips&#x27;: [&#x27;fe80::7ed1:c3ff:fe93:8428%en1&#x27;, &#x27;172.17.2.51&#x27;], &#x27;shutdown_timeout&#x27;: 5, &#x27;taskbar&#x27;: False, &#x27;with_coverage&#x27;: False, &#x27;port&#x27;: 8075, &#x27;maxthreads&#x27;: None, &#x27;softcron&#x27;: False, &#x27;server_name&#x27;: &#x27;Ying-Hsuan.local&#x27;, &#x27;bpython&#x27;: False, &#x27;nogui&#x27;: False, &#x27;pid_filename&#x27;: &#x27;httpserver.pid&#x27;, &#x27;extcron&#x27;: False, &#x27;runcron&#x27;: False, &#x27;run_system_tests&#x27;: False, &#x27;test&#x27;: None, &#x27;folder&#x27;: &#x27;/Users/ying-hsuanlin/termite-data-server/web2py&#x27;, &#x27;config&#x27;: &#x27;&#x27;, &#x27;minthreads&#x27;: None, &#x27;shell&#x27;: None, &#x27;run&#x27;: &#x27;&#x27;, &#x27;log_filename&#x27;: &#x27;httpserver.log&#x27;, &#x27;profiler_dir&#x27;: None, &#x27;args&#x27;: [&#x27;&#x27;], &#x27;socket_timeout&#x27;: 5, &#x27;ssl_ca_certificate&#x27;: None, &#x27;scheduler&#x27;: None, &#x27;interfaces&#x27;: None, &#x27;ssl_private_key&#x27;: &#x27;&#x27;, &#x27;scheduler_groups&#x27;: None, &#x27;password&#x27;: &#x27;&lt;ask&gt;&#x27;, &#x27;request_queue_size&#x27;: 5, &#x27;ssl_certificate&#x27;: &#x27;&#x27;, &#x27;cronjob&#x27;: False, &#x27;numthreads&#x27;: None, &#x27;quiet&#x27;: False, &#x27;import_models&#x27;: False, &#x27;timeout&#x27;: 10, &#x27;plain&#x27;: False, &#x27;nobanner&#x27;: False}&gt;</div></td></tr><tr><td style="font-weight:bold;vertical-align:top;">db_sessions</td><td style="vertical-align:top;">:</td><td><div>set([])</div></td></tr><tr><td style="font-weight:bold;vertical-align:top;">debugging</td><td style="vertical-align:top;">:</td><td><div>False</div></td></tr><tr><td style="font-weight:bold;vertical-align:top;">gluon_parent</td><td style="vertical-align:top;">:</td><td><div>/Users/ying-hsuanlin/termite-data-server/web2py</div></td></tr><tr><td style="font-weight:bold;vertical-align:top;">http_accept</td><td style="vertical-align:top;">:</td><td><div>text/html,application/xhtml+xml,application/xml;q=0.9,image/webp,*/*;q=0.8</div></td></tr><tr><td style="font-weight:bold;vertical-align:top;">http_accept_encoding</td><td style="vertical-align:top;">:</td><td><div>gzip, deflate, sdch</div></td></tr><tr><td style="font-weight:bold;vertical-align:top;">http_accept_language</td><td style="vertical-align:top;">:</td><td><div>zh-TW,zh;q=0.8,en-US;q=0.6,en;q=0.4,zh-CN;q=0.2,et;q=0.2</div></td></tr><tr><td style="font-weight:bold;vertical-align:top;">http_cache_control</td><td style="vertical-align:top;">:</td><td><div>max-age=0</div></td></tr><tr><td style="font-weight:bold;vertical-align:top;">http_connection</td><td style="vertical-align:top;">:</td><td><div>keep-alive</div></td></tr><tr><td style="font-weight:bold;vertical-align:top;">http_cookie</td><td style="vertical-align:top;">:</td><td><div>session_id_init=127.0.0.1-2920d9a0-d14a-4611-b6b1-bbfd4ccd1510; session_id_infovis_mallet=127.0.0.1-b25c2682-3d79-4714-b612-c280a1c28084; session_id_lda_x40_mallet=127.0.0.1-6d9c20f9-b5d1-4546-9ba3-ecb875ce8e2a; session_id_admin=127.0.0.1-56e09121-b93f-45e3-b3f5-8010c12cdced</div></td></tr><tr><td style="font-weight:bold;vertical-align:top;">http_host</td><td style="vertical-align:top;">:</td><td><div>127.0.0.1:8075</div></td></tr><tr><td style="font-weight:bold;vertical-align:top;">http_referer</td><td style="vertical-align:top;">:</td><td><div>http://127.0.0.1:8075/lda_x40_mallet</div></td></tr><tr><td style="font-weight:bold;vertical-align:top;">http_user_agent</td><td style="vertical-align:top;">:</td><td><div>Mozilla/5.0 (Macintosh; Intel Mac OS X 10_10_2) AppleWebKit/537.36 (KHTML, like Gecko) Chrome/43.0.2357.81 Safari/537.36</div></td></tr><tr><td style="font-weight:bold;vertical-align:top;">is_jython</td><td style="vertical-align:top;">:</td><td><div>False</div></td></tr><tr><td style="font-weight:bold;vertical-align:top;">is_pypy</td><td style="vertical-align:top;">:</td><td><div>False</div></td></tr><tr><td style="font-weight:bold;vertical-align:top;">is_source</td><td style="vertical-align:top;">:</td><td><div>True</div></td></tr><tr><td style="font-weight:bold;vertical-align:top;">local_hosts</td><td style="vertical-align:top;">:</td><td><div><table><tr><td><div>fe80::7ed1:c3ff:fe93:8428%en1</div></td></tr><tr><td><div>::ffff:127.0.0.1</div></td></tr><tr><td><div>::1</div></td></tr><tr><td><div>Ying-Hsuan.local</div></td></tr><tr><td><div>127.0.0.1</div></td></tr><tr><td><div>172.17.2.51</div></td></tr></table></div></td></tr><tr><td style="font-weight:bold;vertical-align:top;">path_info</td><td style="vertical-align:top;">:</td><td><div>/lda_x40_mallet/DocTopicMatrix</div></td></tr><tr><td style="font-weight:bold;vertical-align:top;">query_string</td><td style="vertical-align:top;">:</td><td><div></div></td></tr><tr><td style="font-weight:bold;vertical-align:top;">remote_addr</td><td style="vertical-align:top;">:</td><td><div>127.0.0.1</div></td></tr><tr><td style="font-weight:bold;vertical-align:top;">remote_port</td><td style="vertical-align:top;">:</td><td><div>65086</div></td></tr><tr><td style="font-weight:bold;vertical-align:top;">request_method</td><td style="vertical-align:top;">:</td><td><div>GET</div></td></tr><tr><td style="font-weight:bold;vertical-align:top;">request_uri</td><td style="vertical-align:top;">:</td><td><div>/lda_x40_mallet/DocTopicMatrix</div></td></tr><tr><td style="font-weight:bold;vertical-align:top;">script_name</td><td style="vertical-align:top;">:</td><td><div></div></td></tr><tr><td style="font-weight:bold;vertical-align:top;">server_name</td><td style="vertical-align:top;">:</td><td><div>Ying-Hsuan.local</div></td></tr><tr><td style="font-weight:bold;vertical-align:top;">server_port</td><td style="vertical-align:top;">:</td><td><div>8075</div></td></tr><tr><td style="font-weight:bold;vertical-align:top;">server_protocol</td><td style="vertical-align:top;">:</td><td><div>HTTP/1.1</div></td></tr><tr><td style="font-weight:bold;vertical-align:top;">server_software</td><td style="vertical-align:top;">:</td><td><div>Rocket 1.2.6</div></td></tr><tr><td style="font-weight:bold;vertical-align:top;">web2py_path</td><td style="vertical-align:top;">:</td><td><div>/Users/ying-hsuanlin/termite-data-server/web2py</div></td></tr><tr><td style="font-weight:bold;vertical-align:top;">web2py_version</td><td style="vertical-align:top;">:</td><td><div>2.9.5-stable+timestamp.2014.03.16.02.35.39</div></td></tr><tr><td style="font-weight:bold;vertical-align:top;">wsgi.errors</td><td style="vertical-align:top;">:</td><td><div>&lt;open file &#x27;&lt;stderr&gt;&#x27;, mode &#x27;w&#x27; at 0x10dfb91e0&gt;</div></td></tr><tr><td style="font-weight:bold;vertical-align:top;">wsgi.file_wrapper</td><td style="vertical-align:top;">:</td><td><div>&lt;class wsgiref.util.FileWrapper at 0x10ebf9598&gt;</div></td></tr><tr><td style="font-weight:bold;vertical-align:top;">wsgi.input</td><td style="vertical-align:top;">:</td><td><div>&lt;socket._fileobject object at 0x10ef7b350&gt;</div></td></tr><tr><td style="font-weight:bold;vertical-align:top;">wsgi.multiprocess</td><td style="vertical-align:top;">:</td><td><div>False</div></td></tr><tr><td style="font-weight:bold;vertical-align:top;">wsgi.multithread</td><td style="vertical-align:top;">:</td><td><div>True</div></td></tr><tr><td style="font-weight:bold;vertical-align:top;">wsgi.run_once</td><td style="vertical-align:top;">:</td><td><div>False</div></td></tr><tr><td style="font-weight:bold;vertical-align:top;">wsgi.url_scheme</td><td style="vertical-align:top;">:</td><td><div>http</div></td></tr><tr><td style="font-weight:bold;vertical-align:top;">wsgi.version</td><td style="vertical-align:top;">:</td><td><div><table><tr><td><div>1</div></td></tr><tr><td><div>0</div></td></tr></table></div></td></tr><tr><td style="font-weight:bold;vertical-align:top;">wsgi_errors</td><td style="vertical-align:top;">:</td><td><div>&lt;open file &#x27;&lt;stderr&gt;&#x27;, mode &#x27;w&#x27; at 0x10dfb91e0&gt;</div></td></tr><tr><td style="font-weight:bold;vertical-align:top;">wsgi_file_wrapper</td><td style="vertical-align:top;">:</td><td><div>&lt;class wsgiref.util.FileWrapper at 0x10ebf9598&gt;</div></td></tr><tr><td style="font-weight:bold;vertical-align:top;">wsgi_input</td><td style="vertical-align:top;">:</td><td><div>&lt;socket._fileobject object at 0x10ef7b350&gt;</div></td></tr><tr><td style="font-weight:bold;vertical-align:top;">wsgi_multiprocess</td><td style="vertical-align:top;">:</td><td><div>False</div></td></tr><tr><td style="font-weight:bold;vertical-align:top;">wsgi_multithread</td><td style="vertical-align:top;">:</td><td><div>True</div></td></tr><tr><td style="font-weight:bold;vertical-align:top;">wsgi_run_once</td><td style="vertical-align:top;">:</td><td><div>False</div></td></tr><tr><td style="font-weight:bold;vertical-align:top;">wsgi_url_scheme</td><td style="vertical-align:top;">:</td><td><div>http</div></td></tr><tr><td style="font-weight:bold;vertical-align:top;">wsgi_version</td><td style="vertical-align:top;">:</td><td><div><table><tr><td><div>1</div></td></tr><tr><td><div>0</div></td></tr></table></div></td></tr></table></div></td></tr><tr><td style="font-weight:bold;vertical-align:top;">extension</td><td style="vertical-align:top;">:</td><td><div>html</div></td></tr><tr><td style="font-weight:bold;vertical-align:top;">folder</td><td style="vertical-align:top;">:</td><td><div>/Users/ying-hsuanlin/termite-data-server/web2py/applications/lda_x40_mallet/</div></td></tr><tr><td style="font-weight:bold;vertical-align:top;">function</td><td style="vertical-align:top;">:</td><td><div>index</div></td></tr><tr><td style="font-weight:bold;vertical-align:top;">global_settings</td><td style="vertical-align:top;">:</td><td><div><table><tr><td style="font-weight:bold;vertical-align:top;">app_folders</td><td style="vertical-align:top;">:</td><td><div>set([&#x27;/Users/ying-hsuanlin/termite-data-server/web2py/applications/infovis_mallet/&#x27;, &#x27;/Users/ying-hsuanlin/termite-data-server/web2py/applications/admin/&#x27;, &#x27;/Users/ying-hsuanlin/termite-data-server/web2py/applications/init/&#x27;, &#x27;/Users/ying-hsuanlin/termite-data-server/web2py/applications/lda_x40_mallet/&#x27;])</div></td></tr><tr><td style="font-weight:bold;vertical-align:top;">applications_parent</td><td style="vertical-align:top;">:</td><td><div>/Users/ying-hsuanlin/termite-data-server/web2py</div></td></tr><tr><td style="font-weight:bold;vertical-align:top;">cmd_args</td><td style="vertical-align:top;">:</td><td><div><table></table></div></td></tr><tr><td style="font-weight:bold;vertical-align:top;">cmd_options</td><td style="vertical-align:top;">:</td><td><div>&lt;Values at 0x10ee9bef0: {&#x27;verbose&#x27;: False, &#x27;ip&#x27;: &#x27;127.0.0.1&#x27;, &#x27;debuglevel&#x27;: 30, &#x27;with_scheduler&#x27;: False, &#x27;ips&#x27;: [&#x27;fe80::7ed1:c3ff:fe93:8428%en1&#x27;, &#x27;172.17.2.51&#x27;], &#x27;shutdown_timeout&#x27;: 5, &#x27;taskbar&#x27;: False, &#x27;with_coverage&#x27;: False, &#x27;port&#x27;: 8075, &#x27;maxthreads&#x27;: None, &#x27;softcron&#x27;: False, &#x27;server_name&#x27;: &#x27;Ying-Hsuan.local&#x27;, &#x27;bpython&#x27;: False, &#x27;nogui&#x27;: False, &#x27;pid_filename&#x27;: &#x27;httpserver.pid&#x27;, &#x27;extcron&#x27;: False, &#x27;runcron&#x27;: False, &#x27;run_system_tests&#x27;: False, &#x27;test&#x27;: None, &#x27;folder&#x27;: &#x27;/Users/ying-hsuanlin/termite-data-server/web2py&#x27;, &#x27;config&#x27;: &#x27;&#x27;, &#x27;minthreads&#x27;: None, &#x27;shell&#x27;: None, &#x27;run&#x27;: &#x27;&#x27;, &#x27;log_filename&#x27;: &#x27;httpserver.log&#x27;, &#x27;profiler_dir&#x27;: None, &#x27;args&#x27;: [&#x27;&#x27;], &#x27;socket_timeout&#x27;: 5, &#x27;ssl_ca_certificate&#x27;: None, &#x27;scheduler&#x27;: None, &#x27;interfaces&#x27;: None, &#x27;ssl_private_key&#x27;: &#x27;&#x27;, &#x27;scheduler_groups&#x27;: None, &#x27;password&#x27;: &#x27;&lt;ask&gt;&#x27;, &#x27;request_queue_size&#x27;: 5, &#x27;ssl_certificate&#x27;: &#x27;&#x27;, &#x27;cronjob&#x27;: False, &#x27;numthreads&#x27;: None, &#x27;quiet&#x27;: False, &#x27;import_models&#x27;: False, &#x27;timeout&#x27;: 10, &#x27;plain&#x27;: False, &#x27;nobanner&#x27;: False}&gt;</div></td></tr><tr><td style="font-weight:bold;vertical-align:top;">db_sessions</td><td style="vertical-align:top;">:</td><td><div>set([])</div></td></tr><tr><td style="font-weight:bold;vertical-align:top;">debugging</td><td style="vertical-align:top;">:</td><td><div>False</div></td></tr><tr><td style="font-weight:bold;vertical-align:top;">gluon_parent</td><td style="vertical-align:top;">:</td><td><div>/Users/ying-hsuanlin/termite-data-server/web2py</div></td></tr><tr><td style="font-weight:bold;vertical-align:top;">is_jython</td><td style="vertical-align:top;">:</td><td><div>False</div></td></tr><tr><td style="font-weight:bold;vertical-align:top;">is_pypy</td><td style="vertical-align:top;">:</td><td><div>False</div></td></tr><tr><td style="font-weight:bold;vertical-align:top;">is_source</td><td style="vertical-align:top;">:</td><td><div>True</div></td></tr><tr><td style="font-weight:bold;vertical-align:top;">local_hosts</td><td style="vertical-align:top;">:</td><td><div><table><tr><td><div>fe80::7ed1:c3ff:fe93:8428%en1</div></td></tr><tr><td><div>::ffff:127.0.0.1</div></td></tr><tr><td><div>::1</div></td></tr><tr><td><div>Ying-Hsuan.local</div></td></tr><tr><td><div>127.0.0.1</div></td></tr><tr><td><div>172.17.2.51</div></td></tr></table></div></td></tr><tr><td style="font-weight:bold;vertical-align:top;">web2py_version</td><td style="vertical-align:top;">:</td><td><div>2.9.5-stable+timestamp.2014.03.16.02.35.39</div></td></tr></table></div></td></tr><tr><td style="font-weight:bold;vertical-align:top;">is_https</td><td style="vertical-align:top;">:</td><td><div>False</div></td></tr><tr><td style="font-weight:bold;vertical-align:top;">is_local</td><td style="vertical-align:top;">:</td><td><div>True</div></td></tr><tr><td style="font-weight:bold;vertical-align:top;">is_restful</td><td style="vertical-align:top;">:</td><td><div>False</div></td></tr><tr><td style="font-weight:bold;vertical-align:top;">now</td><td style="vertical-align:top;">:</td><td><div>datetime.datetime(2015, 6, 24, 10, 39, 49, 184691)</div></td></tr><tr><td style="font-weight:bold;vertical-align:top;">raw_args</td><td style="vertical-align:top;">:</td><td><div></div></td></tr><tr><td style="font-weight:bold;vertical-align:top;">raw_extension</td><td style="vertical-align:top;">:</td><td><div>None</div></td></tr><tr><td style="font-weight:bold;vertical-align:top;">url</td><td style="vertical-align:top;">:</td><td><div>/lda_x40_mallet/DocTopicMatrix</div></td></tr><tr><td style="font-weight:bold;vertical-align:top;">utcnow</td><td style="vertical-align:top;">:</td><td><div>datetime.datetime(2015, 6, 24, 2, 39, 49, 184701)</div></td></tr><tr><td style="font-weight:bold;vertical-align:top;">uuid</td><td style="vertical-align:top;">:</td><td><div>lda_x40_mallet/127.0.0.1.2015-06-24.10-39-49.2dd3504a-9a27-4196-95ce-936a69c39736</div></td></tr><tr><td style="font-weight:bold;vertical-align:top;">wsgi</td><td style="vertical-align:top;">:</td><td><div>&lt;gluon.main.LazyWSGI object at 0x118e15e50&gt;</div></td></tr></table></div>'
tRp58
sS'frames'
p59
(lp60
(dp61
S'file'
p62
S'/Users/ying-hsuanlin/termite-data-server/web2py/gluon/restricted.py'
p63
sS'dump'
p64
(dp65
S'environment'
p66
S"{'A': <class 'gluon.html.A'>, 'ANY_OF': <class 'gluon.validators.ANY_OF'>, 'AvailableAttributes': [], 'B': <class 'gluon.html.B'>, 'BEAUTIFY': <class 'gluon.html.BEAUTIFY'>, 'BODY': <class 'gluon.html.BODY'>, 'BR': <class 'gluon.html.BR'>, 'BUTTON': <class 'gluon.html.BUTTON'>, 'CAT': <class 'gluon.html.CAT'>, 'CENTER': <class 'gluon.html.CENTER'>, ...}"
p67
sS'ccode'
p68
S'<code object <module> at 0x10ef8ddb0, file "/Use..._mallet/views/DocTopicMatrix/index.html", line 1>'
p69
ssS'lnum'
p70
I220
sS'lines'
p71
(dp72
I224
S'        # do not encapsulate (obfuscate) the original RestrictedError'
p73
sI215
S'    try:'
p74
sI216
S'        if isinstance(code, types.CodeType):'
p75
sI217
S'            ccode = code'
p76
sI218
S'        else:'
p77
sI219
S'            ccode = compile2(code, layer)'
p78
sI220
S'        exec ccode in environment'
p79
sI221
S'    except HTTP:'
p80
sI222
S'        raise'
p81
sI223
S'    except RestrictedError:'
p82
ssS'call'
p83
S'(code=\'response.write(\\\'<!DOCTYPE HTML PUBLIC "-//W3C//D...ponse.write(\\\'\\\\n</body>\\\\n</html>\\\\n\\\', escape=False)\', environment={\'A\': <class \'gluon.html.A\'>, \'ANY_OF\': <class \'gluon.validators.ANY_OF\'>, \'AvailableAttributes\': [], \'B\': <class \'gluon.html.B\'>, \'BEAUTIFY\': <class \'gluon.html.BEAUTIFY\'>, \'BODY\': <class \'gluon.html.BODY\'>, \'BR\': <class \'gluon.html.BR\'>, \'BUTTON\': <class \'gluon.html.BUTTON\'>, \'CAT\': <class \'gluon.html.CAT\'>, \'CENTER\': <class \'gluon.html.CENTER\'>, ...}, layer=\'/Users/ying-hsuanlin/termite-data-server/web2py/...ns/lda_x40_mallet/views/DocTopicMatrix/index.html\')'
p84
sS'func'
p85
S'restricted'
p86
sa(dp87
g62
S'/Users/ying-hsuanlin/termite-data-server/web2py/applications/lda_x40_mallet/views/DocTopicMatrix/index.html'
p88
sg64
(dp89
sg70
I170
sg71
(dp90
I161
S'    pass'
p91
sI162
S"response.write('\\n\\t</select>\\n</div>\\n', escape=False)"
p92
sI163
S'response.write(\'\\n</div>\\n\\n<div class="body">\\n\\t<div class="heading">Method: <b>lda/DocTopicMatrix</b></div>\\n\\t<div class="info">\\n\\t\\tGet a sparse matrix representing the document topical mixtures generated by the LDA model.\\n\\t</div>\\n\\t\', escape=False)'
p93
sI164
S'response.write(\'<div class="heading">URL for making an API request</div>\\n<div class="request"><a class="RequestURL" href="\', escape=False)'
p94
sI165
S'WriteURL()'
p95
sI166
S'response.write(\'">\', escape=False)'
p96
sI167
S'WriteURL()'
p97
sI168
S"response.write('</a></div>\\n', escape=False)"
p98
sI169
S'response.write(\'\\n\\t<div class="params">\\n\\t\\t<p>\\n\\t\\t\\t<span class="key">cellLimit = </span>\\n\\t\\t\\t<span class="value">\', escape=False)'
p99
sI170
S"MakeParamRange('cellLimit', CellLimit, CellCount)"
p100
sI171
S'response.write(\'</span>\\n\\t\\t</p>\\n\\t\\t<p>\\n\\t\\t\\t<span class="key">docLimit = </span>\\n\\t\\t\\t<span class="value">\', escape=False)'
p101
sI172
S"MakeParamRange('docLimit', DocLimit, DocCount)"
p102
sI173
S'response.write(\'</span>\\n\\t\\t</p>\\n\\t\\t<p>\\n\\t\\t\\t<span class="key">docOffset = </span>\\n\\t\\t\\t<span class="value">\', escape=False)'
p103
sI174
S"MakeParamRange('docOffset', DocOffset, DocCount)"
p104
sI175
S'response.write(\'</span>\\n\\t\\t</p>\\n\\t\\t<p>\\n\\t\\t\\t<span class="key">format = </span>\\n\\t\\t\\t<span class="value">\', escape=False)'
p105
sI176
S'MakeParamFormat()'
p106
sI177
S"response.write('</span>\\n\\t\\t</p>\\n\\t</div>\\n\\t', escape=False)"
p107
sI178
S'response.write(\'<div class="heading">API response from the data server</div>\\n<div class="response">\', escape=False)'
p108
sI179
S'response.write(content)'
p109
sI180
S"response.write('</div>\\n', escape=False)"
p110
ssg83
S'()'
p111
sg85
S'<module>'
p112
sasS'pyver'
p113
S'Python 2.7.6: /usr/bin/python (prefix: /System/Library/Frameworks/Python.framework/Versions/2.7)'
p114
sS'session'
p115
g57
(S's\x1a\x00\x00\x00<div><table></table></div>'
tRp116
sS'etype'
p117
S"<type 'exceptions.NameError'>"
p118
sS'date'
p119
S'Wed Jun 24 10:39:49 2015'
p120
sS'response'
p121
g57
(S'sm\x16\x00\x00<div><table><tr><td style="font-weight:bold;vertical-align:top;">body</td><td style="vertical-align:top;">:</td><td><div>&lt;cStringIO.StringO object at 0x115d056f8&gt;</div></td></tr><tr><td style="font-weight:bold;vertical-align:top;">cookies</td><td style="vertical-align:top;">:</td><td><div><table><tr><td style="font-weight:bold;vertical-align:top;">session_id_lda_x40_mallet</td><td style="vertical-align:top;">:</td><td><div>127.0.0.1-695d02c2-90b4-48a1-8b11-569a7a4aa844<table><tr><td style="font-weight:bold;vertical-align:top;">comment</td><td style="vertical-align:top;">:</td><td><div></div></td></tr><tr><td style="font-weight:bold;vertical-align:top;">domain</td><td style="vertical-align:top;">:</td><td><div></div></td></tr><tr><td style="font-weight:bold;vertical-align:top;">expires</td><td style="vertical-align:top;">:</td><td><div></div></td></tr><tr><td style="font-weight:bold;vertical-align:top;">httponly</td><td style="vertical-align:top;">:</td><td><div></div></td></tr><tr><td style="font-weight:bold;vertical-align:top;">max-age</td><td style="vertical-align:top;">:</td><td><div></div></td></tr><tr><td style="font-weight:bold;vertical-align:top;">path</td><td style="vertical-align:top;">:</td><td><div>/</div></td></tr><tr><td style="font-weight:bold;vertical-align:top;">secure</td><td style="vertical-align:top;">:</td><td><div></div></td></tr><tr><td style="font-weight:bold;vertical-align:top;">version</td><td style="vertical-align:top;">:</td><td><div></div></td></tr></table></div></td></tr></table></div></td></tr><tr><td style="font-weight:bold;vertical-align:top;">delimiters</td><td style="vertical-align:top;">:</td><td><div><table><tr><td><div>{{</div></td></tr><tr><td><div>}}</div></td></tr></table></div></td></tr><tr><td style="font-weight:bold;vertical-align:top;">files</td><td style="vertical-align:top;">:</td><td><div><table></table></div></td></tr><tr><td style="font-weight:bold;vertical-align:top;">flash</td><td style="vertical-align:top;">:</td><td><div></div></td></tr><tr><td style="font-weight:bold;vertical-align:top;">generic_patterns</td><td style="vertical-align:top;">:</td><td><div><table></table></div></td></tr><tr><td style="font-weight:bold;vertical-align:top;">headers</td><td style="vertical-align:top;">:</td><td><div><table><tr><td style="font-weight:bold;vertical-align:top;">Content-Type</td><td style="vertical-align:top;">:</td><td><div>text/html; charset=utf-8</div></td></tr><tr><td style="font-weight:bold;vertical-align:top;">X-Powered-By</td><td style="vertical-align:top;">:</td><td><div>web2py</div></td></tr></table></div></td></tr><tr><td style="font-weight:bold;vertical-align:top;">menu</td><td style="vertical-align:top;">:</td><td><div><table></table></div></td></tr><tr><td style="font-weight:bold;vertical-align:top;">meta</td><td style="vertical-align:top;">:</td><td><div><table></table></div></td></tr><tr><td style="font-weight:bold;vertical-align:top;">models_to_run</td><td style="vertical-align:top;">:</td><td><div><table><tr><td><div>^\\w+\\.py$</div></td></tr><tr><td><div>^DocTopicMatrix/\\w+\\.py$</div></td></tr><tr><td><div>^DocTopicMatrix/index/\\w+\\.py$</div></td></tr></table></div></td></tr><tr><td style="font-weight:bold;vertical-align:top;">postprocessing</td><td style="vertical-align:top;">:</td><td><div><table></table></div></td></tr><tr><td style="font-weight:bold;vertical-align:top;">session_client</td><td style="vertical-align:top;">:</td><td><div>127.0.0.1</div></td></tr><tr><td style="font-weight:bold;vertical-align:top;">session_cookie_compression_level</td><td style="vertical-align:top;">:</td><td><div>None</div></td></tr><tr><td style="font-weight:bold;vertical-align:top;">session_cookie_expires</td><td style="vertical-align:top;">:</td><td><div>None</div></td></tr><tr><td style="font-weight:bold;vertical-align:top;">session_cookie_key</td><td style="vertical-align:top;">:</td><td><div>None</div></td></tr><tr><td style="font-weight:bold;vertical-align:top;">session_data_name</td><td style="vertical-align:top;">:</td><td><div>session_data_lda_x40_mallet</div></td></tr><tr><td style="font-weight:bold;vertical-align:top;">session_file</td><td style="vertical-align:top;">:</td><td><div>None</div></td></tr><tr><td style="font-weight:bold;vertical-align:top;">session_filename</td><td style="vertical-align:top;">:</td><td><div>/Users/ying-hsuanlin/termite-data-server/web2py/applications/lda_x40_mallet/sessions/127.0.0.1-695d02c2-90b4-48a1-8b11-569a7a4aa844</div></td></tr><tr><td style="font-weight:bold;vertical-align:top;">session_hash</td><td style="vertical-align:top;">:</td><td><div>106f4c22ca06cc343e42b73a0d8492f6</div></td></tr><tr><td style="font-weight:bold;vertical-align:top;">session_id</td><td style="vertical-align:top;">:</td><td><div>127.0.0.1-695d02c2-90b4-48a1-8b11-569a7a4aa844</div></td></tr><tr><td style="font-weight:bold;vertical-align:top;">session_id_name</td><td style="vertical-align:top;">:</td><td><div>session_id_lda_x40_mallet</div></td></tr><tr><td style="font-weight:bold;vertical-align:top;">session_masterapp</td><td style="vertical-align:top;">:</td><td><div>lda_x40_mallet</div></td></tr><tr><td style="font-weight:bold;vertical-align:top;">session_new</td><td style="vertical-align:top;">:</td><td><div>True</div></td></tr><tr><td style="font-weight:bold;vertical-align:top;">session_storage_type</td><td style="vertical-align:top;">:</td><td><div>file</div></td></tr><tr><td style="font-weight:bold;vertical-align:top;">status</td><td style="vertical-align:top;">:</td><td><div>200</div></td></tr><tr><td style="font-weight:bold;vertical-align:top;">view</td><td style="vertical-align:top;">:</td><td><div>DocTopicMatrix/index.html</div></td></tr></table></div>'
tRp122
sS'locals'
p123
(dp124
S'OBJECT'
p125
S"<class 'gluon.html.OBJECT'>"
p126
sS'track_changes'
p127
S'<function track_changes>'
p128
sS'SQLDB'
p129
S"<class 'gluon.dal.DAL'>"
p130
sg115
S'<Storage {}>'
p131
sS'LINK'
p132
S"<class 'gluon.html.LINK'>"
p133
sS'BR'
p134
S"<class 'gluon.html.BR'>"
p135
sS'local_import'
p136
S'<function <lambda>>'
p137
sS'OPTGROUP'
p138
S"<class 'gluon.html.OPTGROUP'>"
p139
sS'__package__'
p140
S'None'
p141
sS'PRE'
p142
S"<class 'gluon.html.PRE'>"
p143
sS'IS_INT_IN_RANGE'
p144
S"<class 'gluon.validators.IS_INT_IN_RANGE'>"
p145
sS'IS_LOWER'
p146
S"<class 'gluon.validators.IS_LOWER'>"
p147
sS'IS_STRONG'
p148
S"<class 'gluon.validators.IS_STRONG'>"
p149
sS'cache'
p150
S'<gluon.cache.Cache object>'
p151
sS'MakeParamRange'
p152
S'<function MakeParamRange>'
p153
sS'IS_IN_DB'
p154
S"<class 'gluon.validators.IS_IN_DB'>"
p155
sS'TAG'
p156
S'<gluon.html.__TAG__ object>'
p157
sS'SQLField'
p158
S"<class 'gluon.dal.Field'>"
p159
sS'BODY'
p160
S"<class 'gluon.html.BODY'>"
p161
sS'IS_DATE_IN_RANGE'
p162
S"<class 'gluon.validators.IS_DATE_IN_RANGE'>"
p163
sS'MakeParamTextInput'
p164
S'<function MakeParamTextInput>'
p165
sS'IFRAME'
p166
S"<class 'gluon.html.IFRAME'>"
p167
sS'URL'
p168
S'<function URL>'
p169
sS'__file__'
p170
S"'/Users/ying-hsuanlin/termite-data-server/web2py/...ns/lda_x40_mallet/views/DocTopicMatrix/index.html'"
p171
sS'P'
S"<class 'gluon.html.P'>"
p172
sS'TFOOT'
p173
S"<class 'gluon.html.TFOOT'>"
p174
sS'XHTML'
p175
S"<class 'gluon.html.XHTML'>"
p176
sS'ON'
p177
S'True'
p178
sS'OL'
p179
S"<class 'gluon.html.OL'>"
p180
sS'd'
S"{'name': 'Topic Model', 'value': 'lda'}"
p181
sS'TEXTAREA'
p182
S"<class 'gluon.html.TEXTAREA'>"
p183
sS'MENU'
p184
S"<class 'gluon.html.MENU'>"
p185
sS'AvailableAttributes'
p186
S'[]'
p187
sS'WriteURL'
p188
S'<function WriteURL>'
p189
sS'CODE'
p190
S"<class 'gluon.html.CODE'>"
p191
sS'HTTP'
p192
S"<class 'gluon.http.HTTP'>"
p193
sS'HR'
p194
S"<class 'gluon.html.HR'>"
p195
sS'IS_DATETIME'
p196
S"<class 'gluon.validators.IS_DATETIME'>"
p197
sS'HEAD'
p198
S"<class 'gluon.html.HEAD'>"
p199
sS'LABEL'
p200
S"<class 'gluon.html.LABEL'>"
p201
sS'META'
p202
S"<class 'gluon.html.META'>"
p203
sS'SELECT'
p204
S"<class 'gluon.html.SELECT'>"
p205
sS'CENTER'
p206
S"<class 'gluon.html.CENTER'>"
p207
sS'urllib'
p208
S"<module 'urllib' from '/System/Library/Framework...framework/Versions/2.7/lib/python2.7/urllib.pyc'>"
p209
sS'content'
p210
S'\'{\\n  "AvailableAttributes": []\\n}\''
p211
sS'__builtins__'
p212
S"{'ArithmeticError': <type 'exceptions.ArithmeticError'>, 'AssertionError': <type 'exceptions.AssertionError'>, 'AttributeError': <type 'exceptions.AttributeError'>, 'BaseException': <type 'exceptions.BaseException'>, 'BufferError': <type 'exceptions.BufferError'>, 'BytesWarning': <type 'exceptions.BytesWarning'>, 'DeprecationWarning': <type 'exceptions.DeprecationWarning'>, 'EOFError': <type 'exceptions.EOFError'>, 'Ellipsis': Ellipsis, 'EnvironmentError': <type 'exceptions.EnvironmentError'>, ...}"
p213
sS'BEAUTIFY'
p214
S"<class 'gluon.html.BEAUTIFY'>"
p215
sS'SQLFORM'
p216
S"<class 'gluon.sqlhtml.SQLFORM'>"
p217
sS'math'
p218
S"<module 'math' from '/System/Library/Frameworks/.../Versions/2.7/lib/python2.7/lib-dynload/math.so'>"
p219
sS'LOAD'
p220
S'<function LOAD>'
p221
sS'redirect'
p222
S'<function redirect>'
p223
sS'FIELDSET'
p224
S"<class 'gluon.html.FIELDSET'>"
p225
sS'IS_EQUAL_TO'
p226
S"<class 'gluon.validators.IS_EQUAL_TO'>"
p227
sS'embed64'
p228
S'<function embed64>'
p229
sS'IS_LIST_OF'
p230
S"<class 'gluon.validators.IS_LIST_OF'>"
p231
sS'__name__'
p232
S"'__restricted__'"
p233
sS'EMBED'
p234
S"<class 'gluon.html.EMBED'>"
p235
sS'FORM'
p236
S"<class 'gluon.html.FORM'>"
p237
sS'H2'
p238
S"<class 'gluon.html.H2'>"
p239
sS'H3'
p240
S"<class 'gluon.html.H3'>"
p241
sS'BUTTON'
p242
S"<class 'gluon.html.BUTTON'>"
p243
sS'H1'
p244
S"<class 'gluon.html.H1'>"
p245
sS'H6'
p246
S"<class 'gluon.html.H6'>"
p247
sS'H4'
p248
S"<class 'gluon.html.H4'>"
p249
sS'H5'
p250
S"<class 'gluon.html.H5'>"
p251
sS'UL'
p252
S"<class 'gluon.html.UL'>"
p253
sS'IS_UPPER'
p254
S"<class 'gluon.validators.IS_UPPER'>"
p255
sS'xmlescape'
p256
S'<function xmlescape>'
p257
sS'IS_TIME'
p258
S"<class 'gluon.validators.IS_TIME'>"
p259
sS'OPTION'
p260
S"<class 'gluon.html.OPTION'>"
p261
sS'TITLE'
p262
S"<class 'gluon.html.TITLE'>"
p263
sS'CRYPT'
p264
S"<class 'gluon.validators.CRYPT'>"
p265
sS'IS_EMPTY_OR'
p266
S"<class 'gluon.validators.IS_EMPTY_OR'>"
p267
sS'MARKMIN'
p268
S"<class 'gluon.html.MARKMIN'>"
p269
sS'INPUT'
p270
S"<class 'gluon.html.INPUT'>"
p271
sS'STRONG'
p272
S"<class 'gluon.html.STRONG'>"
p273
sS'EM'
p274
S"<class 'gluon.html.EM'>"
p275
sS'COL'
p276
S"<class 'gluon.html.COL'>"
p277
sS'SCRIPT'
p278
S"<class 'gluon.html.SCRIPT'>"
p279
sS'json'
p280
S"<module 'json' from '/System/Library/Frameworks/...rk/Versions/2.7/lib/python2.7/json/__init__.pyc'>"
p281
sS'params'
p282
g45
sS'TABLE'
p283
S"<class 'gluon.html.TABLE'>"
p284
sS'IS_IPV4'
p285
S"<class 'gluon.validators.IS_IPV4'>"
p286
sS'IS_LENGTH'
p287
S"<class 'gluon.validators.IS_LENGTH'>"
p288
sS'IS_IPV6'
p289
S"<class 'gluon.validators.IS_IPV6'>"
p290
sS'XML'
p291
S"<class 'gluon.html.XML'>"
p292
sS'B'
S"<class 'gluon.html.B'>"
p293
sS'IMG'
p294
S"<class 'gluon.html.IMG'>"
p295
sS'SQLTABLE'
p296
S"<class 'gluon.sqlhtml.SQLTABLE'>"
p297
sS'IS_MATCH'
p298
S"<class 'gluon.validators.IS_MATCH'>"
p299
sS'IS_ALPHANUMERIC'
p300
S"<class 'gluon.validators.IS_ALPHANUMERIC'>"
p301
sS'MakeParamSelect'
p302
S'<function MakeParamSelect>'
p303
sS'SPAN'
p304
S"<class 'gluon.html.SPAN'>"
p305
sS'IS_JSON'
p306
S"<class 'gluon.validators.IS_JSON'>"
p307
sS'IS_IPADDRESS'
p308
S"<class 'gluon.validators.IS_IPADDRESS'>"
p309
sS'IS_SLUG'
p310
S"<class 'gluon.validators.IS_SLUG'>"
p311
sS'value'
p312
S"'lda_x40_mallet'"
p313
sS'CLEANUP'
p314
S"<class 'gluon.validators.CLEANUP'>"
p315
sS'MakeParamTextArea'
p316
S'<function MakeParamTextArea>'
p317
sS'IS_DATE'
p318
S"<class 'gluon.validators.IS_DATE'>"
p319
sS'IS_EMAIL'
p320
S"<class 'gluon.validators.IS_EMAIL'>"
p321
sS'IS_NOT_EMPTY'
p322
S"<class 'gluon.validators.IS_NOT_EMPTY'>"
p323
sS'IS_FLOAT_IN_RANGE'
p324
S"<class 'gluon.validators.IS_FLOAT_IN_RANGE'>"
p325
sS'TBODY'
p326
S"<class 'gluon.html.TBODY'>"
p327
sS'CAT'
p328
S"<class 'gluon.html.CAT'>"
p329
sS'Field'
p330
S"<class 'gluon.dal.Field'>"
p331
sS'IS_LIST_OF_EMAILS'
p332
S"<class 'gluon.validators.IS_LIST_OF_EMAILS'>"
p333
sS'DIV'
p334
S"<class 'gluon.html.DIV'>"
p335
sS'LEGEND'
p336
S"<class 'gluon.html.LEGEND'>"
p337
sS'WriteJSON'
p338
S'<function WriteJSON>'
p339
sS'COLGROUP'
p340
S"<class 'gluon.html.COLGROUP'>"
p341
sS'DAL'
p342
S"<class 'gluon.dal.DAL'>"
p343
sS'TT'
p344
S"<class 'gluon.html.TT'>"
p345
sS'TR'
p346
S"<class 'gluon.html.TR'>"
p347
sS'LI'
p348
S"<class 'gluon.html.LI'>"
p349
sS'menus'
p350
S"{'attribute': 'index', 'attributes': [], 'dataset': 'lda_x40_mallet', 'datasets': ['infovis_mallet', 'lda_x40_mallet'], 'model': 'DocTopicMatrix', 'models': [{'name': 'Text Corpus', 'value': 'corpus'}, {'name': 'Bag-of-Words Language Model', 'value': 'bow'}, {'name': 'Topic Model', 'value': 'lda'}], 'operations': [{'name': 'Upload a new dataset', 'value': 'dataset'}], 'server': '127.0.0.1:8075', 'visualizations': [{'name': 'Term-Topic Matrix 0.1', 'value': 'TermTopicMatrix1'}, {'name': 'Term-Topic Matrix 0.2', 'value': 'TermTopicMatrix2'}, {'name': 'Term-Topic Matrix 0.3', 'value': 'TermTopicMatrix3'}, {'name': 'Scatter Plot 1.0', 'value': 'ScatterPlot1'}, {'name': 'DocTopicMatrix', 'value': 'DocTopicMatrix'}]}"
p351
sS'MakeParamFormat'
p352
S'<function MakeParamFormat>'
p353
sS'TH'
p354
S"<class 'gluon.html.TH'>"
p355
sS'TD'
p356
S"<class 'gluon.html.TD'>"
p357
sS'IS_URL'
p358
S"<class 'gluon.validators.IS_URL'>"
p359
sS'A'
S"<class 'gluon.html.A'>"
p360
sS'STYLE'
p361
S"<class 'gluon.html.STYLE'>"
p362
sS'IS_DATETIME_IN_RANGE'
p363
S"<class 'gluon.validators.IS_DATETIME_IN_RANGE'>"
p364
sS'HTML'
p365
S"<class 'gluon.html.HTML'>"
p366
sS'IS_IMAGE'
p367
S"<class 'gluon.validators.IS_IMAGE'>"
p368
sS'I'
S"<class 'gluon.html.I'>"
p369
sS'IS_NOT_IN_DB'
p370
S"<class 'gluon.validators.IS_NOT_IN_DB'>"
p371
sS'configs'
p372
S"{'AvailableOperations': [{'name': 'Upload a new dataset', 'value': 'dataset'}], 'attribute': 'index', 'dataset': 'lda_x40_mallet', 'is_csv': False, 'is_graph': False, 'is_json': False, 'is_text': True, 'is_tsv': False, 'model': 'DocTopicMatrix', 'server': '127.0.0.1:8075', ...}"
p373
sg121
S"<Storage {'body': <cStringIO.StringO object at 0...10eec0f50>, 'view': 'DocTopicMatrix/index.html'}>"
p374
sS'THEAD'
p375
S"<class 'gluon.html.THEAD'>"
p376
sS'ANY_OF'
p377
S"<class 'gluon.validators.ANY_OF'>"
p378
sS'IS_NULL_OR'
p379
S"<class 'gluon.validators.IS_EMPTY_OR'>"
p380
sg56
S"<Storage {'_vars': <Storage {}>, 'function': 'in...ata-server/web2py/applications/lda_x40_mallet/'}>"
p381
sS'IS_EXPR'
p382
S"<class 'gluon.validators.IS_EXPR'>"
p383
sS'T'
S'<gluon.languages.translator object>'
p384
sS'IS_IN_SET'
p385
S"<class 'gluon.validators.IS_IN_SET'>"
p386
sS'IS_UPLOAD_FILENAME'
p387
S"<class 'gluon.validators.IS_UPLOAD_FILENAME'>"
p388
sS'IS_DECIMAL_IN_RANGE'
p389
S"<class 'gluon.validators.IS_DECIMAL_IN_RANGE'>"
p390
sssS'traceback'
p391
S'Traceback (most recent call last):\n  File "/Users/ying-hsuanlin/termite-data-server/web2py/gluon/restricted.py", line 220, in restricted\n    exec ccode in environment\n  File "/Users/ying-hsuanlin/termite-data-server/web2py/applications/lda_x40_mallet/views/DocTopicMatrix/index.html", line 170, in <module>\nNameError: name \'CellLimit\' is not defined\n'
p392
s.